
FirstTry.elf:     file format elf32-avr

Sections:
Idx Name          Size      VMA       LMA       File off  Algn
  0 .data         00000002  00802800  000012b3  00001367  2**0
                  CONTENTS, ALLOC, LOAD, DATA
  1 .text         00001250  00000000  00000000  000000b4  2**1
                  CONTENTS, ALLOC, LOAD, READONLY, CODE
  2 .rodata       00000063  00005250  00001250  00001304  2**0
                  CONTENTS, ALLOC, LOAD, READONLY, DATA
  3 .bss          000001de  00802802  00802802  00001369  2**0
                  ALLOC
  4 .comment      0000005c  00000000  00000000  00001369  2**0
                  CONTENTS, READONLY
  5 .note.gnu.avr.deviceinfo 00000040  00000000  00000000  000013c8  2**2
                  CONTENTS, READONLY
  6 .debug_aranges 00000100  00000000  00000000  00001408  2**3
                  CONTENTS, READONLY, DEBUGGING
  7 .debug_info   000043b3  00000000  00000000  00001508  2**0
                  CONTENTS, READONLY, DEBUGGING
  8 .debug_abbrev 0000289c  00000000  00000000  000058bb  2**0
                  CONTENTS, READONLY, DEBUGGING
  9 .debug_line   00000dcd  00000000  00000000  00008157  2**0
                  CONTENTS, READONLY, DEBUGGING
 10 .debug_frame  000002a4  00000000  00000000  00008f24  2**2
                  CONTENTS, READONLY, DEBUGGING
 11 .debug_str    00001a2d  00000000  00000000  000091c8  2**0
                  CONTENTS, READONLY, DEBUGGING
 12 .debug_loc    00000cc8  00000000  00000000  0000abf5  2**0
                  CONTENTS, READONLY, DEBUGGING
 13 .debug_ranges 000000b0  00000000  00000000  0000b8bd  2**0
                  CONTENTS, READONLY, DEBUGGING

Disassembly of section .text:

00000000 <__vectors>:
       0:	0c 94 50 00 	jmp	0xa0	; 0xa0 <__ctors_end>
       4:	0c 94 6d 00 	jmp	0xda	; 0xda <__bad_interrupt>
       8:	0c 94 6d 00 	jmp	0xda	; 0xda <__bad_interrupt>
       c:	0c 94 6d 00 	jmp	0xda	; 0xda <__bad_interrupt>
      10:	0c 94 6d 00 	jmp	0xda	; 0xda <__bad_interrupt>
      14:	0c 94 6d 00 	jmp	0xda	; 0xda <__bad_interrupt>
      18:	0c 94 6d 00 	jmp	0xda	; 0xda <__bad_interrupt>
      1c:	0c 94 6d 00 	jmp	0xda	; 0xda <__bad_interrupt>
      20:	0c 94 6d 00 	jmp	0xda	; 0xda <__bad_interrupt>
      24:	0c 94 6d 00 	jmp	0xda	; 0xda <__bad_interrupt>
      28:	0c 94 6d 00 	jmp	0xda	; 0xda <__bad_interrupt>
      2c:	0c 94 6d 00 	jmp	0xda	; 0xda <__bad_interrupt>
      30:	0c 94 ce 03 	jmp	0x79c	; 0x79c <__vector_12>
      34:	0c 94 6d 00 	jmp	0xda	; 0xda <__bad_interrupt>
      38:	0c 94 6d 00 	jmp	0xda	; 0xda <__bad_interrupt>
      3c:	0c 94 6d 00 	jmp	0xda	; 0xda <__bad_interrupt>
      40:	0c 94 6d 00 	jmp	0xda	; 0xda <__bad_interrupt>
      44:	0c 94 6d 00 	jmp	0xda	; 0xda <__bad_interrupt>
      48:	0c 94 6d 00 	jmp	0xda	; 0xda <__bad_interrupt>
      4c:	0c 94 6d 00 	jmp	0xda	; 0xda <__bad_interrupt>
      50:	0c 94 6d 00 	jmp	0xda	; 0xda <__bad_interrupt>
      54:	0c 94 6d 00 	jmp	0xda	; 0xda <__bad_interrupt>
      58:	0c 94 89 04 	jmp	0x912	; 0x912 <__vector_22>
      5c:	0c 94 6d 00 	jmp	0xda	; 0xda <__bad_interrupt>
      60:	0c 94 6d 00 	jmp	0xda	; 0xda <__bad_interrupt>
      64:	0c 94 6d 00 	jmp	0xda	; 0xda <__bad_interrupt>
      68:	0c 94 6d 00 	jmp	0xda	; 0xda <__bad_interrupt>
      6c:	0c 94 6d 00 	jmp	0xda	; 0xda <__bad_interrupt>
      70:	0c 94 6d 00 	jmp	0xda	; 0xda <__bad_interrupt>
      74:	0c 94 6d 00 	jmp	0xda	; 0xda <__bad_interrupt>
      78:	0c 94 6d 00 	jmp	0xda	; 0xda <__bad_interrupt>
      7c:	0c 94 6d 00 	jmp	0xda	; 0xda <__bad_interrupt>
      80:	0c 94 6d 00 	jmp	0xda	; 0xda <__bad_interrupt>
      84:	0c 94 6d 00 	jmp	0xda	; 0xda <__bad_interrupt>
      88:	0c 94 6d 00 	jmp	0xda	; 0xda <__bad_interrupt>
      8c:	0c 94 6d 00 	jmp	0xda	; 0xda <__bad_interrupt>
      90:	0c 94 6d 00 	jmp	0xda	; 0xda <__bad_interrupt>
      94:	0c 94 6d 00 	jmp	0xda	; 0xda <__bad_interrupt>
      98:	0c 94 d7 05 	jmp	0xbae	; 0xbae <__vector_38>
      9c:	0c 94 6d 00 	jmp	0xda	; 0xda <__bad_interrupt>

000000a0 <__ctors_end>:
      a0:	11 24       	eor	r1, r1
      a2:	1f be       	out	0x3f, r1	; 63
      a4:	cf ef       	ldi	r28, 0xFF	; 255
      a6:	cd bf       	out	0x3d, r28	; 61
      a8:	df e3       	ldi	r29, 0x3F	; 63
      aa:	de bf       	out	0x3e, r29	; 62

000000ac <__do_copy_data>:
      ac:	18 e2       	ldi	r17, 0x28	; 40
      ae:	a0 e0       	ldi	r26, 0x00	; 0
      b0:	b8 e2       	ldi	r27, 0x28	; 40
      b2:	e3 eb       	ldi	r30, 0xB3	; 179
      b4:	f2 e1       	ldi	r31, 0x12	; 18
      b6:	02 c0       	rjmp	.+4      	; 0xbc <__do_copy_data+0x10>
      b8:	05 90       	lpm	r0, Z+
      ba:	0d 92       	st	X+, r0
      bc:	a2 30       	cpi	r26, 0x02	; 2
      be:	b1 07       	cpc	r27, r17
      c0:	d9 f7       	brne	.-10     	; 0xb8 <__do_copy_data+0xc>

000000c2 <__do_clear_bss>:
      c2:	29 e2       	ldi	r18, 0x29	; 41
      c4:	a2 e0       	ldi	r26, 0x02	; 2
      c6:	b8 e2       	ldi	r27, 0x28	; 40
      c8:	01 c0       	rjmp	.+2      	; 0xcc <.do_clear_bss_start>

000000ca <.do_clear_bss_loop>:
      ca:	1d 92       	st	X+, r1

000000cc <.do_clear_bss_start>:
      cc:	a0 3e       	cpi	r26, 0xE0	; 224
      ce:	b2 07       	cpc	r27, r18
      d0:	e1 f7       	brne	.-8      	; 0xca <.do_clear_bss_loop>
      d2:	0e 94 de 02 	call	0x5bc	; 0x5bc <main>
      d6:	0c 94 26 09 	jmp	0x124c	; 0x124c <_exit>

000000da <__bad_interrupt>:
      da:	0c 94 00 00 	jmp	0	; 0x0 <__vectors>

000000de <button_down>:
      de:	90 91 88 04 	lds	r25, 0x0488	; 0x800488 <__TEXT_REGION_LENGTH__+0x7f4488>
      e2:	62 34       	cpi	r22, 0x42	; 66
      e4:	29 f0       	breq	.+10     	; 0xf0 <button_down+0x12>
      e6:	65 34       	cpi	r22, 0x45	; 69
      e8:	29 f4       	brne	.+10     	; 0xf4 <button_down+0x16>
      ea:	90 91 88 04 	lds	r25, 0x0488	; 0x800488 <__TEXT_REGION_LENGTH__+0x7f4488>
      ee:	02 c0       	rjmp	.+4      	; 0xf4 <button_down+0x16>
      f0:	90 91 28 04 	lds	r25, 0x0428	; 0x800428 <__TEXT_REGION_LENGTH__+0x7f4428>
      f4:	89 23       	and	r24, r25
      f6:	11 f0       	breq	.+4      	; 0xfc <button_down+0x1e>
      f8:	80 e0       	ldi	r24, 0x00	; 0
      fa:	08 95       	ret
      fc:	81 e0       	ldi	r24, 0x01	; 1
      fe:	08 95       	ret

00000100 <debounce_init>:
     100:	e0 e8       	ldi	r30, 0x80	; 128
     102:	f4 e0       	ldi	r31, 0x04	; 4
     104:	80 85       	ldd	r24, Z+8	; 0x08
     106:	84 60       	ori	r24, 0x04	; 4
     108:	80 87       	std	Z+8, r24	; 0x08
     10a:	80 85       	ldd	r24, Z+8	; 0x08
     10c:	82 60       	ori	r24, 0x02	; 2
     10e:	80 87       	std	Z+8, r24	; 0x08
     110:	80 85       	ldd	r24, Z+8	; 0x08
     112:	81 60       	ori	r24, 0x01	; 1
     114:	80 87       	std	Z+8, r24	; 0x08
     116:	a0 e2       	ldi	r26, 0x20	; 32
     118:	b4 e0       	ldi	r27, 0x04	; 4
     11a:	18 96       	adiw	r26, 0x08	; 8
     11c:	8c 91       	ld	r24, X
     11e:	18 97       	sbiw	r26, 0x08	; 8
     120:	82 60       	ori	r24, 0x02	; 2
     122:	18 96       	adiw	r26, 0x08	; 8
     124:	8c 93       	st	X, r24
     126:	18 97       	sbiw	r26, 0x08	; 8
     128:	88 e0       	ldi	r24, 0x08	; 8
     12a:	82 8b       	std	Z+18, r24	; 0x12
     12c:	81 8b       	std	Z+17, r24	; 0x11
     12e:	80 8b       	std	Z+16, r24	; 0x10
     130:	51 96       	adiw	r26, 0x11	; 17
     132:	8c 93       	st	X, r24
     134:	08 95       	ret

00000136 <DATA_OUT>:
     136:	e0 e4       	ldi	r30, 0x40	; 64
     138:	f4 e0       	ldi	r31, 0x04	; 4
     13a:	94 81       	ldd	r25, Z+4	; 0x04
     13c:	9f 7b       	andi	r25, 0xBF	; 191
     13e:	94 83       	std	Z+4, r25	; 0x04
     140:	e0 e2       	ldi	r30, 0x20	; 32
     142:	f4 e0       	ldi	r31, 0x04	; 4
     144:	94 81       	ldd	r25, Z+4	; 0x04
     146:	9b 7f       	andi	r25, 0xFB	; 251
     148:	94 83       	std	Z+4, r25	; 0x04
     14a:	e0 ea       	ldi	r30, 0xA0	; 160
     14c:	f4 e0       	ldi	r31, 0x04	; 4
     14e:	94 81       	ldd	r25, Z+4	; 0x04
     150:	9f 7e       	andi	r25, 0xEF	; 239
     152:	94 83       	std	Z+4, r25	; 0x04
     154:	e0 e0       	ldi	r30, 0x00	; 0
     156:	f4 e0       	ldi	r31, 0x04	; 4
     158:	94 81       	ldd	r25, Z+4	; 0x04
     15a:	9d 7f       	andi	r25, 0xFD	; 253
     15c:	94 83       	std	Z+4, r25	; 0x04
     15e:	84 ff       	sbrs	r24, 4
     160:	05 c0       	rjmp	.+10     	; 0x16c <DATA_OUT+0x36>
     162:	e0 e4       	ldi	r30, 0x40	; 64
     164:	f4 e0       	ldi	r31, 0x04	; 4
     166:	94 81       	ldd	r25, Z+4	; 0x04
     168:	90 64       	ori	r25, 0x40	; 64
     16a:	94 83       	std	Z+4, r25	; 0x04
     16c:	85 ff       	sbrs	r24, 5
     16e:	05 c0       	rjmp	.+10     	; 0x17a <DATA_OUT+0x44>
     170:	e0 e2       	ldi	r30, 0x20	; 32
     172:	f4 e0       	ldi	r31, 0x04	; 4
     174:	94 81       	ldd	r25, Z+4	; 0x04
     176:	94 60       	ori	r25, 0x04	; 4
     178:	94 83       	std	Z+4, r25	; 0x04
     17a:	86 ff       	sbrs	r24, 6
     17c:	05 c0       	rjmp	.+10     	; 0x188 <DATA_OUT+0x52>
     17e:	e0 ea       	ldi	r30, 0xA0	; 160
     180:	f4 e0       	ldi	r31, 0x04	; 4
     182:	94 81       	ldd	r25, Z+4	; 0x04
     184:	90 61       	ori	r25, 0x10	; 16
     186:	94 83       	std	Z+4, r25	; 0x04
     188:	88 23       	and	r24, r24
     18a:	2c f4       	brge	.+10     	; 0x196 <DATA_OUT+0x60>
     18c:	e0 e0       	ldi	r30, 0x00	; 0
     18e:	f4 e0       	ldi	r31, 0x04	; 4
     190:	84 81       	ldd	r24, Z+4	; 0x04
     192:	82 60       	ori	r24, 0x02	; 2
     194:	84 83       	std	Z+4, r24	; 0x04
     196:	08 95       	ret

00000198 <LCD_Command>:
     198:	1f 93       	push	r17
     19a:	cf 93       	push	r28
     19c:	df 93       	push	r29
     19e:	18 2f       	mov	r17, r24
     1a0:	80 7f       	andi	r24, 0xF0	; 240
     1a2:	0e 94 9b 00 	call	0x136	; 0x136 <DATA_OUT>
     1a6:	e0 e0       	ldi	r30, 0x00	; 0
     1a8:	f4 e0       	ldi	r31, 0x04	; 4
     1aa:	84 81       	ldd	r24, Z+4	; 0x04
     1ac:	8e 7f       	andi	r24, 0xFE	; 254
     1ae:	84 83       	std	Z+4, r24	; 0x04
     1b0:	c0 ea       	ldi	r28, 0xA0	; 160
     1b2:	d4 e0       	ldi	r29, 0x04	; 4
     1b4:	8c 81       	ldd	r24, Y+4	; 0x04
     1b6:	80 62       	ori	r24, 0x20	; 32
     1b8:	8c 83       	std	Y+4, r24	; 0x04
	#else
		//round up by default
		__ticks_dc = (uint32_t)(ceil(fabs(__tmp)));
	#endif

	__builtin_avr_delay_cycles(__ticks_dc);
     1ba:	86 e0       	ldi	r24, 0x06	; 6
     1bc:	8a 95       	dec	r24
     1be:	f1 f7       	brne	.-4      	; 0x1bc <LCD_Command+0x24>
     1c0:	00 c0       	rjmp	.+0      	; 0x1c2 <LCD_Command+0x2a>
     1c2:	8c 81       	ldd	r24, Y+4	; 0x04
     1c4:	8f 7d       	andi	r24, 0xDF	; 223
     1c6:	8c 83       	std	Y+4, r24	; 0x04
     1c8:	87 ee       	ldi	r24, 0xE7	; 231
     1ca:	93 e0       	ldi	r25, 0x03	; 3
     1cc:	01 97       	sbiw	r24, 0x01	; 1
     1ce:	f1 f7       	brne	.-4      	; 0x1cc <LCD_Command+0x34>
     1d0:	00 c0       	rjmp	.+0      	; 0x1d2 <LCD_Command+0x3a>
     1d2:	00 00       	nop
     1d4:	81 2f       	mov	r24, r17
     1d6:	82 95       	swap	r24
     1d8:	80 7f       	andi	r24, 0xF0	; 240
     1da:	0e 94 9b 00 	call	0x136	; 0x136 <DATA_OUT>
     1de:	8c 81       	ldd	r24, Y+4	; 0x04
     1e0:	80 62       	ori	r24, 0x20	; 32
     1e2:	8c 83       	std	Y+4, r24	; 0x04
     1e4:	96 e0       	ldi	r25, 0x06	; 6
     1e6:	9a 95       	dec	r25
     1e8:	f1 f7       	brne	.-4      	; 0x1e6 <LCD_Command+0x4e>
     1ea:	00 c0       	rjmp	.+0      	; 0x1ec <LCD_Command+0x54>
     1ec:	8c 81       	ldd	r24, Y+4	; 0x04
     1ee:	8f 7d       	andi	r24, 0xDF	; 223
     1f0:	8c 83       	std	Y+4, r24	; 0x04
	#else
		//round up by default
		__ticks_dc = (uint32_t)(ceil(fabs(__tmp)));
	#endif

	__builtin_avr_delay_cycles(__ticks_dc);
     1f2:	8f e0       	ldi	r24, 0x0F	; 15
     1f4:	97 e2       	ldi	r25, 0x27	; 39
     1f6:	01 97       	sbiw	r24, 0x01	; 1
     1f8:	f1 f7       	brne	.-4      	; 0x1f6 <LCD_Command+0x5e>
     1fa:	00 c0       	rjmp	.+0      	; 0x1fc <LCD_Command+0x64>
     1fc:	00 00       	nop
     1fe:	df 91       	pop	r29
     200:	cf 91       	pop	r28
     202:	1f 91       	pop	r17
     204:	08 95       	ret

00000206 <LCD_Char>:
     206:	1f 93       	push	r17
     208:	cf 93       	push	r28
     20a:	df 93       	push	r29
     20c:	18 2f       	mov	r17, r24
     20e:	80 7f       	andi	r24, 0xF0	; 240
     210:	0e 94 9b 00 	call	0x136	; 0x136 <DATA_OUT>
     214:	e0 e0       	ldi	r30, 0x00	; 0
     216:	f4 e0       	ldi	r31, 0x04	; 4
     218:	84 81       	ldd	r24, Z+4	; 0x04
     21a:	81 60       	ori	r24, 0x01	; 1
     21c:	84 83       	std	Z+4, r24	; 0x04
     21e:	c0 ea       	ldi	r28, 0xA0	; 160
     220:	d4 e0       	ldi	r29, 0x04	; 4
     222:	8c 81       	ldd	r24, Y+4	; 0x04
     224:	80 62       	ori	r24, 0x20	; 32
     226:	8c 83       	std	Y+4, r24	; 0x04
	#else
		//round up by default
		__ticks_dc = (uint32_t)(ceil(fabs(__tmp)));
	#endif

	__builtin_avr_delay_cycles(__ticks_dc);
     228:	86 e0       	ldi	r24, 0x06	; 6
     22a:	8a 95       	dec	r24
     22c:	f1 f7       	brne	.-4      	; 0x22a <LCD_Char+0x24>
     22e:	00 c0       	rjmp	.+0      	; 0x230 <LCD_Char+0x2a>
     230:	8c 81       	ldd	r24, Y+4	; 0x04
     232:	8f 7d       	andi	r24, 0xDF	; 223
     234:	8c 83       	std	Y+4, r24	; 0x04
     236:	87 ee       	ldi	r24, 0xE7	; 231
     238:	93 e0       	ldi	r25, 0x03	; 3
     23a:	01 97       	sbiw	r24, 0x01	; 1
     23c:	f1 f7       	brne	.-4      	; 0x23a <LCD_Char+0x34>
     23e:	00 c0       	rjmp	.+0      	; 0x240 <LCD_Char+0x3a>
     240:	00 00       	nop
     242:	81 2f       	mov	r24, r17
     244:	82 95       	swap	r24
     246:	80 7f       	andi	r24, 0xF0	; 240
     248:	0e 94 9b 00 	call	0x136	; 0x136 <DATA_OUT>
     24c:	8c 81       	ldd	r24, Y+4	; 0x04
     24e:	80 62       	ori	r24, 0x20	; 32
     250:	8c 83       	std	Y+4, r24	; 0x04
     252:	96 e0       	ldi	r25, 0x06	; 6
     254:	9a 95       	dec	r25
     256:	f1 f7       	brne	.-4      	; 0x254 <LCD_Char+0x4e>
     258:	00 c0       	rjmp	.+0      	; 0x25a <LCD_Char+0x54>
     25a:	8c 81       	ldd	r24, Y+4	; 0x04
     25c:	8f 7d       	andi	r24, 0xDF	; 223
     25e:	8c 83       	std	Y+4, r24	; 0x04
	#else
		//round up by default
		__ticks_dc = (uint32_t)(ceil(fabs(__tmp)));
	#endif

	__builtin_avr_delay_cycles(__ticks_dc);
     260:	8f e0       	ldi	r24, 0x0F	; 15
     262:	97 e2       	ldi	r25, 0x27	; 39
     264:	01 97       	sbiw	r24, 0x01	; 1
     266:	f1 f7       	brne	.-4      	; 0x264 <LCD_Char+0x5e>
     268:	00 c0       	rjmp	.+0      	; 0x26a <LCD_Char+0x64>
     26a:	00 00       	nop
     26c:	df 91       	pop	r29
     26e:	cf 91       	pop	r28
     270:	1f 91       	pop	r17
     272:	08 95       	ret

00000274 <LCD_Init>:
     274:	cf 93       	push	r28
     276:	df 93       	push	r29
     278:	e0 e0       	ldi	r30, 0x00	; 0
     27a:	f4 e0       	ldi	r31, 0x04	; 4
     27c:	80 81       	ld	r24, Z
     27e:	81 60       	ori	r24, 0x01	; 1
     280:	80 83       	st	Z, r24
     282:	a0 ea       	ldi	r26, 0xA0	; 160
     284:	b4 e0       	ldi	r27, 0x04	; 4
     286:	8c 91       	ld	r24, X
     288:	80 62       	ori	r24, 0x20	; 32
     28a:	8c 93       	st	X, r24
     28c:	80 e4       	ldi	r24, 0x40	; 64
     28e:	94 e0       	ldi	r25, 0x04	; 4
     290:	ec 01       	movw	r28, r24
     292:	28 81       	ld	r18, Y
     294:	20 64       	ori	r18, 0x40	; 64
     296:	28 83       	st	Y, r18
     298:	40 e2       	ldi	r20, 0x20	; 32
     29a:	54 e0       	ldi	r21, 0x04	; 4
     29c:	ea 01       	movw	r28, r20
     29e:	28 81       	ld	r18, Y
     2a0:	24 60       	ori	r18, 0x04	; 4
     2a2:	28 83       	st	Y, r18
     2a4:	2c 91       	ld	r18, X
     2a6:	20 61       	ori	r18, 0x10	; 16
     2a8:	2c 93       	st	X, r18
     2aa:	20 81       	ld	r18, Z
     2ac:	22 60       	ori	r18, 0x02	; 2
     2ae:	20 83       	st	Z, r18
     2b0:	24 81       	ldd	r18, Z+4	; 0x04
     2b2:	2e 7f       	andi	r18, 0xFE	; 254
     2b4:	24 83       	std	Z+4, r18	; 0x04
     2b6:	14 96       	adiw	r26, 0x04	; 4
     2b8:	2c 91       	ld	r18, X
     2ba:	14 97       	sbiw	r26, 0x04	; 4
     2bc:	2f 7d       	andi	r18, 0xDF	; 223
     2be:	14 96       	adiw	r26, 0x04	; 4
     2c0:	2c 93       	st	X, r18
     2c2:	14 97       	sbiw	r26, 0x04	; 4
     2c4:	ec 01       	movw	r28, r24
     2c6:	2c 81       	ldd	r18, Y+4	; 0x04
     2c8:	2f 7b       	andi	r18, 0xBF	; 191
     2ca:	2c 83       	std	Y+4, r18	; 0x04
     2cc:	ea 01       	movw	r28, r20
     2ce:	8c 81       	ldd	r24, Y+4	; 0x04
     2d0:	8b 7f       	andi	r24, 0xFB	; 251
     2d2:	8c 83       	std	Y+4, r24	; 0x04
     2d4:	14 96       	adiw	r26, 0x04	; 4
     2d6:	8c 91       	ld	r24, X
     2d8:	14 97       	sbiw	r26, 0x04	; 4
     2da:	8f 7e       	andi	r24, 0xEF	; 239
     2dc:	14 96       	adiw	r26, 0x04	; 4
     2de:	8c 93       	st	X, r24
     2e0:	84 81       	ldd	r24, Z+4	; 0x04
     2e2:	8d 7f       	andi	r24, 0xFD	; 253
     2e4:	84 83       	std	Z+4, r24	; 0x04
     2e6:	df eb       	ldi	r29, 0xBF	; 191
     2e8:	24 ed       	ldi	r18, 0xD4	; 212
     2ea:	81 e0       	ldi	r24, 0x01	; 1
     2ec:	d1 50       	subi	r29, 0x01	; 1
     2ee:	20 40       	sbci	r18, 0x00	; 0
     2f0:	80 40       	sbci	r24, 0x00	; 0
     2f2:	e1 f7       	brne	.-8      	; 0x2ec <LCD_Init+0x78>
     2f4:	00 c0       	rjmp	.+0      	; 0x2f6 <LCD_Init+0x82>
     2f6:	00 00       	nop
     2f8:	83 e3       	ldi	r24, 0x33	; 51
     2fa:	0e 94 cc 00 	call	0x198	; 0x198 <LCD_Command>
     2fe:	c7 ea       	ldi	r28, 0xA7	; 167
     300:	d1 e6       	ldi	r29, 0x61	; 97
     302:	21 97       	sbiw	r28, 0x01	; 1
     304:	f1 f7       	brne	.-4      	; 0x302 <LCD_Init+0x8e>
     306:	00 c0       	rjmp	.+0      	; 0x308 <LCD_Init+0x94>
     308:	00 00       	nop
     30a:	82 e3       	ldi	r24, 0x32	; 50
     30c:	0e 94 cc 00 	call	0x198	; 0x198 <LCD_Command>
     310:	88 e2       	ldi	r24, 0x28	; 40
     312:	0e 94 cc 00 	call	0x198	; 0x198 <LCD_Command>
     316:	8c e0       	ldi	r24, 0x0C	; 12
     318:	0e 94 cc 00 	call	0x198	; 0x198 <LCD_Command>
     31c:	86 e0       	ldi	r24, 0x06	; 6
     31e:	0e 94 cc 00 	call	0x198	; 0x198 <LCD_Command>
     322:	81 e0       	ldi	r24, 0x01	; 1
     324:	0e 94 cc 00 	call	0x198	; 0x198 <LCD_Command>
     328:	8f e0       	ldi	r24, 0x0F	; 15
     32a:	97 e2       	ldi	r25, 0x27	; 39
     32c:	01 97       	sbiw	r24, 0x01	; 1
     32e:	f1 f7       	brne	.-4      	; 0x32c <LCD_Init+0xb8>
     330:	00 c0       	rjmp	.+0      	; 0x332 <LCD_Init+0xbe>
     332:	00 00       	nop
     334:	df 91       	pop	r29
     336:	cf 91       	pop	r28
     338:	08 95       	ret

0000033a <LCD_String>:
     33a:	0f 93       	push	r16
     33c:	1f 93       	push	r17
     33e:	cf 93       	push	r28
     340:	df 93       	push	r29
     342:	8c 01       	movw	r16, r24
     344:	c0 e0       	ldi	r28, 0x00	; 0
     346:	d0 e0       	ldi	r29, 0x00	; 0
     348:	03 c0       	rjmp	.+6      	; 0x350 <LCD_String+0x16>
     34a:	0e 94 03 01 	call	0x206	; 0x206 <LCD_Char>
     34e:	21 96       	adiw	r28, 0x01	; 1
     350:	f8 01       	movw	r30, r16
     352:	ec 0f       	add	r30, r28
     354:	fd 1f       	adc	r31, r29
     356:	80 81       	ld	r24, Z
     358:	81 11       	cpse	r24, r1
     35a:	f7 cf       	rjmp	.-18     	; 0x34a <LCD_String+0x10>
     35c:	df 91       	pop	r29
     35e:	cf 91       	pop	r28
     360:	1f 91       	pop	r17
     362:	0f 91       	pop	r16
     364:	08 95       	ret

00000366 <LCD_String_xy>:
     366:	cf 93       	push	r28
     368:	df 93       	push	r29
     36a:	ea 01       	movw	r28, r20
     36c:	81 11       	cpse	r24, r1
     36e:	08 c0       	rjmp	.+16     	; 0x380 <LCD_String_xy+0x1a>
     370:	60 31       	cpi	r22, 0x10	; 16
     372:	30 f4       	brcc	.+12     	; 0x380 <LCD_String_xy+0x1a>
     374:	86 2f       	mov	r24, r22
     376:	8f 70       	andi	r24, 0x0F	; 15
     378:	80 68       	ori	r24, 0x80	; 128
     37a:	0e 94 cc 00 	call	0x198	; 0x198 <LCD_Command>
     37e:	09 c0       	rjmp	.+18     	; 0x392 <LCD_String_xy+0x2c>
     380:	81 30       	cpi	r24, 0x01	; 1
     382:	39 f4       	brne	.+14     	; 0x392 <LCD_String_xy+0x2c>
     384:	60 31       	cpi	r22, 0x10	; 16
     386:	28 f4       	brcc	.+10     	; 0x392 <LCD_String_xy+0x2c>
     388:	86 2f       	mov	r24, r22
     38a:	8f 70       	andi	r24, 0x0F	; 15
     38c:	80 6c       	ori	r24, 0xC0	; 192
     38e:	0e 94 cc 00 	call	0x198	; 0x198 <LCD_Command>
     392:	ce 01       	movw	r24, r28
     394:	0e 94 9d 01 	call	0x33a	; 0x33a <LCD_String>
     398:	df 91       	pop	r29
     39a:	cf 91       	pop	r28
     39c:	08 95       	ret

0000039e <LCD_menu>:
void put_to_buffer(uint8_t note_switch,uint8_t note_NOTE,uint8_t note_volume);
volatile Button_Machine Button_Machines[4] = {Released,Released,Released,Released};
volatile uint8_t BUTTON_FLAGS[4] = {0,0,0,0};
volatile int Button_Timers[4] = {0,0,0,0};
	void LCD_menu(uint8_t state)
	{
     39e:	0f 93       	push	r16
     3a0:	1f 93       	push	r17
     3a2:	cf 93       	push	r28
     3a4:	df 93       	push	r29
     3a6:	cd b7       	in	r28, 0x3d	; 61
     3a8:	de b7       	in	r29, 0x3e	; 62
     3aa:	d4 50       	subi	r29, 0x04	; 4
     3ac:	cd bf       	out	0x3d, r28	; 61
     3ae:	de bf       	out	0x3e, r29	; 62
		char buf[ 1024];
		switch (state)
     3b0:	81 30       	cpi	r24, 0x01	; 1
     3b2:	f1 f0       	breq	.+60     	; 0x3f0 <LCD_menu+0x52>
     3b4:	20 f0       	brcs	.+8      	; 0x3be <LCD_menu+0x20>
     3b6:	82 30       	cpi	r24, 0x02	; 2
     3b8:	09 f4       	brne	.+2      	; 0x3bc <LCD_menu+0x1e>
     3ba:	45 c0       	rjmp	.+138    	; 0x446 <__LOCK_REGION_LENGTH__+0x46>
     3bc:	70 c0       	rjmp	.+224    	; 0x49e <__LOCK_REGION_LENGTH__+0x9e>
		{
			case 0:
			LCD_Command(0x01);
     3be:	81 e0       	ldi	r24, 0x01	; 1
     3c0:	0e 94 cc 00 	call	0x198	; 0x198 <LCD_Command>
			LCD_String_xy (0, 2, "Guitar Hero");
     3c4:	40 e5       	ldi	r20, 0x50	; 80
     3c6:	52 e5       	ldi	r21, 0x52	; 82
     3c8:	62 e0       	ldi	r22, 0x02	; 2
     3ca:	80 e0       	ldi	r24, 0x00	; 0
     3cc:	0e 94 b3 01 	call	0x366	; 0x366 <LCD_String_xy>
			LCD_String_xy (1, 3, "Let's Rock");
     3d0:	4c e5       	ldi	r20, 0x5C	; 92
     3d2:	52 e5       	ldi	r21, 0x52	; 82
     3d4:	63 e0       	ldi	r22, 0x03	; 3
     3d6:	81 e0       	ldi	r24, 0x01	; 1
     3d8:	0e 94 b3 01 	call	0x366	; 0x366 <LCD_String_xy>
     3dc:	2f e7       	ldi	r18, 0x7F	; 127
     3de:	8a e1       	ldi	r24, 0x1A	; 26
     3e0:	96 e0       	ldi	r25, 0x06	; 6
     3e2:	21 50       	subi	r18, 0x01	; 1
     3e4:	80 40       	sbci	r24, 0x00	; 0
     3e6:	90 40       	sbci	r25, 0x00	; 0
     3e8:	e1 f7       	brne	.-8      	; 0x3e2 <LCD_menu+0x44>
     3ea:	00 c0       	rjmp	.+0      	; 0x3ec <LCD_menu+0x4e>
     3ec:	00 00       	nop
     3ee:	57 c0       	rjmp	.+174    	; 0x49e <__LOCK_REGION_LENGTH__+0x9e>

			_delay_ms(100);
			break;
			case 1:
			LCD_Command(0x01);
     3f0:	81 e0       	ldi	r24, 0x01	; 1
     3f2:	0e 94 cc 00 	call	0x198	; 0x198 <LCD_Command>
			LCD_String_xy (0, 4, "Kick Note");
     3f6:	47 e6       	ldi	r20, 0x67	; 103
     3f8:	52 e5       	ldi	r21, 0x52	; 82
     3fa:	64 e0       	ldi	r22, 0x04	; 4
     3fc:	80 e0       	ldi	r24, 0x00	; 0
     3fe:	0e 94 b3 01 	call	0x366	; 0x366 <LCD_String_xy>
			sprintf( buf, "%d", note_C[0]);
     402:	1f 92       	push	r1
     404:	1f 92       	push	r1
     406:	81 e7       	ldi	r24, 0x71	; 113
     408:	92 e5       	ldi	r25, 0x52	; 82
     40a:	9f 93       	push	r25
     40c:	8f 93       	push	r24
     40e:	8e 01       	movw	r16, r28
     410:	0f 5f       	subi	r16, 0xFF	; 255
     412:	1f 4f       	sbci	r17, 0xFF	; 255
     414:	1f 93       	push	r17
     416:	0f 93       	push	r16
     418:	0e 94 3c 06 	call	0xc78	; 0xc78 <sprintf>
			LCD_String_xy (1, 8, buf);
     41c:	a8 01       	movw	r20, r16
     41e:	68 e0       	ldi	r22, 0x08	; 8
     420:	81 e0       	ldi	r24, 0x01	; 1
     422:	0e 94 b3 01 	call	0x366	; 0x366 <LCD_String_xy>
     426:	2f e7       	ldi	r18, 0x7F	; 127
     428:	8a e1       	ldi	r24, 0x1A	; 26
     42a:	96 e0       	ldi	r25, 0x06	; 6
     42c:	21 50       	subi	r18, 0x01	; 1
     42e:	80 40       	sbci	r24, 0x00	; 0
     430:	90 40       	sbci	r25, 0x00	; 0
     432:	e1 f7       	brne	.-8      	; 0x42c <__LOCK_REGION_LENGTH__+0x2c>
     434:	00 c0       	rjmp	.+0      	; 0x436 <__LOCK_REGION_LENGTH__+0x36>
     436:	00 00       	nop
     438:	0f 90       	pop	r0
     43a:	0f 90       	pop	r0
     43c:	0f 90       	pop	r0
     43e:	0f 90       	pop	r0
     440:	0f 90       	pop	r0
     442:	0f 90       	pop	r0
     444:	2c c0       	rjmp	.+88     	; 0x49e <__LOCK_REGION_LENGTH__+0x9e>

			_delay_ms(100);
			break;
			case 2:
			LCD_Command(0x01);
     446:	81 e0       	ldi	r24, 0x01	; 1
     448:	0e 94 cc 00 	call	0x198	; 0x198 <LCD_Command>
			LCD_String_xy (0, 0, "Kick Velocity");
     44c:	44 e7       	ldi	r20, 0x74	; 116
     44e:	52 e5       	ldi	r21, 0x52	; 82
     450:	60 e0       	ldi	r22, 0x00	; 0
     452:	80 e0       	ldi	r24, 0x00	; 0
     454:	0e 94 b3 01 	call	0x366	; 0x366 <LCD_String_xy>
			
			sprintf( buf, "%d", note_velocity[0]);
     458:	80 91 c5 29 	lds	r24, 0x29C5	; 0x8029c5 <note_velocity>
     45c:	1f 92       	push	r1
     45e:	8f 93       	push	r24
     460:	81 e7       	ldi	r24, 0x71	; 113
     462:	92 e5       	ldi	r25, 0x52	; 82
     464:	9f 93       	push	r25
     466:	8f 93       	push	r24
     468:	8e 01       	movw	r16, r28
     46a:	0f 5f       	subi	r16, 0xFF	; 255
     46c:	1f 4f       	sbci	r17, 0xFF	; 255
     46e:	1f 93       	push	r17
     470:	0f 93       	push	r16
     472:	0e 94 3c 06 	call	0xc78	; 0xc78 <sprintf>
			LCD_String_xy (1, 8, buf);
     476:	a8 01       	movw	r20, r16
     478:	68 e0       	ldi	r22, 0x08	; 8
     47a:	81 e0       	ldi	r24, 0x01	; 1
     47c:	0e 94 b3 01 	call	0x366	; 0x366 <LCD_String_xy>
     480:	2f e7       	ldi	r18, 0x7F	; 127
     482:	8a e1       	ldi	r24, 0x1A	; 26
     484:	96 e0       	ldi	r25, 0x06	; 6
     486:	21 50       	subi	r18, 0x01	; 1
     488:	80 40       	sbci	r24, 0x00	; 0
     48a:	90 40       	sbci	r25, 0x00	; 0
     48c:	e1 f7       	brne	.-8      	; 0x486 <__LOCK_REGION_LENGTH__+0x86>
     48e:	00 c0       	rjmp	.+0      	; 0x490 <__LOCK_REGION_LENGTH__+0x90>
     490:	00 00       	nop
     492:	0f 90       	pop	r0
     494:	0f 90       	pop	r0
     496:	0f 90       	pop	r0
     498:	0f 90       	pop	r0
     49a:	0f 90       	pop	r0
     49c:	0f 90       	pop	r0

			_delay_ms(100);
			break;
			
		}
	}
     49e:	dc 5f       	subi	r29, 0xFC	; 252
     4a0:	cd bf       	out	0x3d, r28	; 61
     4a2:	de bf       	out	0x3e, r29	; 62
     4a4:	df 91       	pop	r29
     4a6:	cf 91       	pop	r28
     4a8:	1f 91       	pop	r17
     4aa:	0f 91       	pop	r16
     4ac:	08 95       	ret

000004ae <release_state>:
void release_state(uint8_t button)
{
	Button_Machines[button] = PushedDown_Wait;
     4ae:	90 e0       	ldi	r25, 0x00	; 0
     4b0:	fc 01       	movw	r30, r24
     4b2:	ec 5e       	subi	r30, 0xEC	; 236
     4b4:	f7 4d       	sbci	r31, 0xD7	; 215
     4b6:	21 e0       	ldi	r18, 0x01	; 1
     4b8:	20 83       	st	Z, r18
	Button_Timers[button] = 200;
     4ba:	88 0f       	add	r24, r24
     4bc:	99 1f       	adc	r25, r25
     4be:	fc 01       	movw	r30, r24
     4c0:	e8 5f       	subi	r30, 0xF8	; 248
     4c2:	f7 4d       	sbci	r31, 0xD7	; 215
     4c4:	88 ec       	ldi	r24, 0xC8	; 200
     4c6:	90 e0       	ldi	r25, 0x00	; 0
     4c8:	80 83       	st	Z, r24
     4ca:	91 83       	std	Z+1, r25	; 0x01
     4cc:	08 95       	ret

000004ce <pusheddown_wait_state>:
}
void pusheddown_wait_state(uint8_t mask,char port, uint8_t button)
{
     4ce:	cf 93       	push	r28
	if (Button_Timers[0] < 1)
     4d0:	20 91 08 28 	lds	r18, 0x2808	; 0x802808 <Button_Timers>
     4d4:	30 91 09 28 	lds	r19, 0x2809	; 0x802809 <Button_Timers+0x1>
     4d8:	12 16       	cp	r1, r18
     4da:	13 06       	cpc	r1, r19
     4dc:	b4 f0       	brlt	.+44     	; 0x50a <pusheddown_wait_state+0x3c>
     4de:	c4 2f       	mov	r28, r20
			{
			if (button_down(mask, port))
     4e0:	0e 94 6f 00 	call	0xde	; 0xde <button_down>
     4e4:	88 23       	and	r24, r24
     4e6:	61 f0       	breq	.+24     	; 0x500 <pusheddown_wait_state+0x32>
				{
					Button_Machines[button] = PushedDown_DoingSomething;
     4e8:	ec 2f       	mov	r30, r28
     4ea:	f0 e0       	ldi	r31, 0x00	; 0
     4ec:	df 01       	movw	r26, r30
     4ee:	ac 5e       	subi	r26, 0xEC	; 236
     4f0:	b7 4d       	sbci	r27, 0xD7	; 215
     4f2:	82 e0       	ldi	r24, 0x02	; 2
     4f4:	8c 93       	st	X, r24
					BUTTON_FLAGS[button] = 1;
     4f6:	e0 5f       	subi	r30, 0xF0	; 240
     4f8:	f7 4d       	sbci	r31, 0xD7	; 215
     4fa:	81 e0       	ldi	r24, 0x01	; 1
     4fc:	80 83       	st	Z, r24
     4fe:	05 c0       	rjmp	.+10     	; 0x50a <pusheddown_wait_state+0x3c>
					
				}
				else
				{
					Button_Machines[button] = Released;
     500:	ec 2f       	mov	r30, r28
     502:	f0 e0       	ldi	r31, 0x00	; 0
     504:	ec 5e       	subi	r30, 0xEC	; 236
     506:	f7 4d       	sbci	r31, 0xD7	; 215
     508:	10 82       	st	Z, r1
					
				}
					
			}
}
     50a:	cf 91       	pop	r28
     50c:	08 95       	ret

0000050e <pusheddown_doingsomething_state>:
void pusheddown_doingsomething_state(uint8_t mask,char port, uint8_t button,char* State_Name )
{
     50e:	0f 93       	push	r16
     510:	1f 93       	push	r17
     512:	cf 93       	push	r28
     514:	df 93       	push	r29
     516:	18 2f       	mov	r17, r24
     518:	06 2f       	mov	r16, r22
	if (BUTTON_FLAGS[button] == 1)
     51a:	c4 2f       	mov	r28, r20
     51c:	d0 e0       	ldi	r29, 0x00	; 0
     51e:	fe 01       	movw	r30, r28
     520:	e0 5f       	subi	r30, 0xF0	; 240
     522:	f7 4d       	sbci	r31, 0xD7	; 215
     524:	80 81       	ld	r24, Z
     526:	81 30       	cpi	r24, 0x01	; 1
     528:	81 f4       	brne	.+32     	; 0x54a <pusheddown_doingsomething_state+0x3c>
			{
				if(button == 0 || button == 1)
     52a:	42 30       	cpi	r20, 0x02	; 2
     52c:	70 f4       	brcc	.+28     	; 0x54a <pusheddown_doingsomething_state+0x3c>
				{
					LCD_menu(menu_state);
     52e:	80 91 25 28 	lds	r24, 0x2825	; 0x802825 <menu_state>
     532:	0e 94 cf 01 	call	0x39e	; 0x39e <LCD_menu>
					menu_state = (menu_state+1)%(3);
     536:	80 91 25 28 	lds	r24, 0x2825	; 0x802825 <menu_state>
     53a:	90 e0       	ldi	r25, 0x00	; 0
     53c:	01 96       	adiw	r24, 0x01	; 1
     53e:	63 e0       	ldi	r22, 0x03	; 3
     540:	70 e0       	ldi	r23, 0x00	; 0
     542:	0e 94 14 06 	call	0xc28	; 0xc28 <__divmodhi4>
     546:	80 93 25 28 	sts	0x2825, r24	; 0x802825 <menu_state>
				}
							}
			BUTTON_FLAGS[button] = 0;
     54a:	fe 01       	movw	r30, r28
     54c:	e0 5f       	subi	r30, 0xF0	; 240
     54e:	f7 4d       	sbci	r31, 0xD7	; 215
     550:	10 82       	st	Z, r1
			if (!(button_down(mask, port)))
     552:	60 2f       	mov	r22, r16
     554:	81 2f       	mov	r24, r17
     556:	0e 94 6f 00 	call	0xde	; 0xde <button_down>
     55a:	81 11       	cpse	r24, r1
     55c:	0d c0       	rjmp	.+26     	; 0x578 <pusheddown_doingsomething_state+0x6a>
			{
				Button_Timers[button] = 200;
     55e:	fe 01       	movw	r30, r28
     560:	ee 0f       	add	r30, r30
     562:	ff 1f       	adc	r31, r31
     564:	e8 5f       	subi	r30, 0xF8	; 248
     566:	f7 4d       	sbci	r31, 0xD7	; 215
     568:	88 ec       	ldi	r24, 0xC8	; 200
     56a:	90 e0       	ldi	r25, 0x00	; 0
     56c:	80 83       	st	Z, r24
     56e:	91 83       	std	Z+1, r25	; 0x01
				Button_Machines[button] = Released_Wait;
     570:	cc 5e       	subi	r28, 0xEC	; 236
     572:	d7 4d       	sbci	r29, 0xD7	; 215
     574:	83 e0       	ldi	r24, 0x03	; 3
     576:	88 83       	st	Y, r24
			}
}
     578:	df 91       	pop	r29
     57a:	cf 91       	pop	r28
     57c:	1f 91       	pop	r17
     57e:	0f 91       	pop	r16
     580:	08 95       	ret

00000582 <released_wait_state>:
void released_wait_state(uint8_t mask,char port, uint8_t button)
{
     582:	cf 93       	push	r28
     584:	df 93       	push	r29
	if (Button_Timers[button] < 1)
     586:	c4 2f       	mov	r28, r20
     588:	d0 e0       	ldi	r29, 0x00	; 0
     58a:	fe 01       	movw	r30, r28
     58c:	ee 0f       	add	r30, r30
     58e:	ff 1f       	adc	r31, r31
     590:	e8 5f       	subi	r30, 0xF8	; 248
     592:	f7 4d       	sbci	r31, 0xD7	; 215
     594:	20 81       	ld	r18, Z
     596:	31 81       	ldd	r19, Z+1	; 0x01
     598:	12 16       	cp	r1, r18
     59a:	13 06       	cpc	r1, r19
     59c:	64 f0       	brlt	.+24     	; 0x5b6 <released_wait_state+0x34>
			{
				if (button_down(mask, port))
     59e:	0e 94 6f 00 	call	0xde	; 0xde <button_down>
     5a2:	88 23       	and	r24, r24
     5a4:	29 f0       	breq	.+10     	; 0x5b0 <released_wait_state+0x2e>
				{
					Button_Machines[button] = PushedDown_DoingSomething;
     5a6:	cc 5e       	subi	r28, 0xEC	; 236
     5a8:	d7 4d       	sbci	r29, 0xD7	; 215
     5aa:	82 e0       	ldi	r24, 0x02	; 2
     5ac:	88 83       	st	Y, r24
     5ae:	03 c0       	rjmp	.+6      	; 0x5b6 <released_wait_state+0x34>
				}
				else
				{
					Button_Machines[button] = Released;
     5b0:	cc 5e       	subi	r28, 0xEC	; 236
     5b2:	d7 4d       	sbci	r29, 0xD7	; 215
     5b4:	18 82       	st	Y, r1
				}
			}
}
     5b6:	df 91       	pop	r29
     5b8:	cf 91       	pop	r28
     5ba:	08 95       	ret

000005bc <main>:
enum states{Default_state, There_was_hit};
enum states state[6] = {Default_state,Default_state,Default_state,Default_state,Default_state,Default_state};
int main(void)
{
	// Init clock source.
	ccp_write_io((uint8_t*)&CLKCTRL.MCLKCTRLB, 0x00);
     5bc:	60 e0       	ldi	r22, 0x00	; 0
     5be:	81 e6       	ldi	r24, 0x61	; 97
     5c0:	90 e0       	ldi	r25, 0x00	; 0
     5c2:	0e 94 ef 08 	call	0x11de	; 0x11de <ccp_write_io>
	
	// Set PORTMUX.
	PORTMUX.USARTROUTEA |= PORTMUX_USART3_ALT1_gc;
     5c6:	e0 ee       	ldi	r30, 0xE0	; 224
     5c8:	f5 e0       	ldi	r31, 0x05	; 5
     5ca:	82 81       	ldd	r24, Z+2	; 0x02
     5cc:	80 64       	ori	r24, 0x40	; 64
     5ce:	82 83       	std	Z+2, r24	; 0x02
	
	// Set port directions.
	PORTB.DIR = PIN4_bm;
     5d0:	80 e1       	ldi	r24, 0x10	; 16
     5d2:	80 93 20 04 	sts	0x0420, r24	; 0x800420 <__TEXT_REGION_LENGTH__+0x7f4420>
	//PORTD.DIR = PIN6_bm;
	/* Replace with your application code */
	PORTD.OUT = 0x00;
     5d6:	00 e6       	ldi	r16, 0x60	; 96
     5d8:	14 e0       	ldi	r17, 0x04	; 4
     5da:	f8 01       	movw	r30, r16
     5dc:	14 82       	std	Z+4, r1	; 0x04
	
	// Init UART.
	USART3.BAUD = 313;
     5de:	e0 e6       	ldi	r30, 0x60	; 96
     5e0:	f8 e0       	ldi	r31, 0x08	; 8
     5e2:	89 e3       	ldi	r24, 0x39	; 57
     5e4:	91 e0       	ldi	r25, 0x01	; 1
     5e6:	80 87       	std	Z+8, r24	; 0x08
     5e8:	91 87       	std	Z+9, r25	; 0x09
	USART3.CTRLB = USART_TXEN_bm;
     5ea:	80 e4       	ldi	r24, 0x40	; 64
     5ec:	86 83       	std	Z+6, r24	; 0x06
	
	// Init TCB0 timer.
	TCB0.INTCTRL = TCB_CAPT_bm;
     5ee:	e0 e8       	ldi	r30, 0x80	; 128
     5f0:	fa e0       	ldi	r31, 0x0A	; 10
     5f2:	c1 e0       	ldi	r28, 0x01	; 1
     5f4:	c5 83       	std	Z+5, r28	; 0x05
	TCB0.CNT = 0;
     5f6:	12 86       	std	Z+10, r1	; 0x0a
     5f8:	13 86       	std	Z+11, r1	; 0x0b
	TCB0.CCMP = 330;
     5fa:	8a e4       	ldi	r24, 0x4A	; 74
     5fc:	91 e0       	ldi	r25, 0x01	; 1
     5fe:	84 87       	std	Z+12, r24	; 0x0c
     600:	95 87       	std	Z+13, r25	; 0x0d
	TCB0.CTRLA = TCB_ENABLE_bm;
     602:	c0 83       	st	Z, r28
	
	//Print HELLO LCD
	LCD_Init();
     604:	0e 94 3a 01 	call	0x274	; 0x274 <LCD_Init>
	LCD_String("hello");
     608:	82 e8       	ldi	r24, 0x82	; 130
     60a:	92 e5       	ldi	r25, 0x52	; 82
     60c:	0e 94 9d 01 	call	0x33a	; 0x33a <LCD_String>
	LCD_Command(0x01);              /* Clear display screen*/
     610:	81 e0       	ldi	r24, 0x01	; 1
     612:	0e 94 cc 00 	call	0x198	; 0x198 <LCD_Command>
	LCD_String_xy (0, 5, "hello");
     616:	42 e8       	ldi	r20, 0x82	; 130
     618:	52 e5       	ldi	r21, 0x52	; 82
     61a:	65 e0       	ldi	r22, 0x05	; 5
     61c:	80 e0       	ldi	r24, 0x00	; 0
     61e:	0e 94 b3 01 	call	0x366	; 0x366 <LCD_String_xy>
	LCD_String_xy (1, 5, "world");
     622:	48 e8       	ldi	r20, 0x88	; 136
     624:	52 e5       	ldi	r21, 0x52	; 82
     626:	65 e0       	ldi	r22, 0x05	; 5
     628:	81 e0       	ldi	r24, 0x01	; 1
     62a:	0e 94 b3 01 	call	0x366	; 0x366 <LCD_String_xy>
	LCD_Command(0x01); 
     62e:	81 e0       	ldi	r24, 0x01	; 1
     630:	0e 94 cc 00 	call	0x198	; 0x198 <LCD_Command>
	//LCD_Command(0x01);              /* Clear display screen*/
	//BUTTON INIC
	debounce_init();
     634:	0e 94 80 00 	call	0x100	; 0x100 <debounce_init>
	//ADC
	//VDD 1 << 4
	PORTD.PIN0CTRL = PORT_ISC_INPUT_DISABLE_gc;
     638:	84 e0       	ldi	r24, 0x04	; 4
     63a:	f8 01       	movw	r30, r16
     63c:	80 8b       	std	Z+16, r24	; 0x10
	PORTD.PIN1CTRL = PORT_ISC_INPUT_DISABLE_gc;
     63e:	81 8b       	std	Z+17, r24	; 0x11
	ADC0.CTRLC = ADC_SAMPCAP_bm | ADC_REFSEL0_bm | ADC_PRESC_DIV16_gc;
     640:	e0 e0       	ldi	r30, 0x00	; 0
     642:	f6 e0       	ldi	r31, 0x06	; 6
     644:	83 e5       	ldi	r24, 0x53	; 83
     646:	82 83       	std	Z+2, r24	; 0x02
	ADC0.MUXPOS = ADC_MUXPOS_AIN0_gc;
     648:	16 82       	std	Z+6, r1	; 0x06
	ADC0.INTCTRL = ADC_RESRDY_bm;
     64a:	c2 87       	std	Z+10, r28	; 0x0a
	ADC0.CTRLA = ADC_ENABLE_bm;
     64c:	c0 83       	st	Z, r28

	//ADC0.CTRLC = ADC_REFSEL0_bm; 
	// Enable global interrupts
    sei();
     64e:	78 94       	sei
		//IDe hívom a gombot
		//ELsõ állapt az TIMER állítása
		//GOMB lenyomva/Vissza
		//Utolsó állapot a TIMER ÁLLÍtása
		//GOmb felengedve/vissza
		switch(Button_Machines[0])
     650:	80 91 14 28 	lds	r24, 0x2814	; 0x802814 <Button_Machines>
     654:	81 30       	cpi	r24, 0x01	; 1
     656:	81 f0       	breq	.+32     	; 0x678 <main+0xbc>
     658:	28 f0       	brcs	.+10     	; 0x664 <main+0xa8>
     65a:	82 30       	cpi	r24, 0x02	; 2
     65c:	99 f0       	breq	.+38     	; 0x684 <main+0xc8>
     65e:	83 30       	cpi	r24, 0x03	; 3
     660:	c9 f0       	breq	.+50     	; 0x694 <main+0xd8>
     662:	1d c0       	rjmp	.+58     	; 0x69e <main+0xe2>
		{			
			case Released:
			if (button_down(BUTTON1_MASK, 'E'))
     664:	65 e4       	ldi	r22, 0x45	; 69
     666:	84 e0       	ldi	r24, 0x04	; 4
     668:	0e 94 6f 00 	call	0xde	; 0xde <button_down>
     66c:	88 23       	and	r24, r24
     66e:	c9 f0       	breq	.+50     	; 0x6a2 <main+0xe6>
			{      
				release_state(0);
     670:	80 e0       	ldi	r24, 0x00	; 0
     672:	0e 94 57 02 	call	0x4ae	; 0x4ae <release_state>
     676:	15 c0       	rjmp	.+42     	; 0x6a2 <main+0xe6>
			}
			break;
			case PushedDown_Wait:
			pusheddown_wait_state(BUTTON1_MASK,'E',0);
     678:	40 e0       	ldi	r20, 0x00	; 0
     67a:	65 e4       	ldi	r22, 0x45	; 69
     67c:	84 e0       	ldi	r24, 0x04	; 4
     67e:	0e 94 67 02 	call	0x4ce	; 0x4ce <pusheddown_wait_state>
			break;
     682:	0f c0       	rjmp	.+30     	; 0x6a2 <main+0xe6>
			case PushedDown_DoingSomething:
			pusheddown_doingsomething_state(BUTTON1_MASK, 'E', 0,"Left" );
     684:	2e e8       	ldi	r18, 0x8E	; 142
     686:	32 e5       	ldi	r19, 0x52	; 82
     688:	40 e0       	ldi	r20, 0x00	; 0
     68a:	65 e4       	ldi	r22, 0x45	; 69
     68c:	84 e0       	ldi	r24, 0x04	; 4
     68e:	0e 94 87 02 	call	0x50e	; 0x50e <pusheddown_doingsomething_state>
			break;
     692:	07 c0       	rjmp	.+14     	; 0x6a2 <main+0xe6>
			case Released_Wait:
			released_wait_state(BUTTON1_MASK,'E', 0);
     694:	40 e0       	ldi	r20, 0x00	; 0
     696:	65 e4       	ldi	r22, 0x45	; 69
     698:	84 e0       	ldi	r24, 0x04	; 4
     69a:	0e 94 c1 02 	call	0x582	; 0x582 <released_wait_state>
			default:
			Button_Machines[0] = Released;
     69e:	10 92 14 28 	sts	0x2814, r1	; 0x802814 <Button_Machines>
			break;
				
		}
	
		switch(Button_Machines[1])
     6a2:	80 91 15 28 	lds	r24, 0x2815	; 0x802815 <Button_Machines+0x1>
     6a6:	81 30       	cpi	r24, 0x01	; 1
     6a8:	81 f0       	breq	.+32     	; 0x6ca <main+0x10e>
     6aa:	28 f0       	brcs	.+10     	; 0x6b6 <main+0xfa>
     6ac:	82 30       	cpi	r24, 0x02	; 2
     6ae:	99 f0       	breq	.+38     	; 0x6d6 <main+0x11a>
     6b0:	83 30       	cpi	r24, 0x03	; 3
     6b2:	c9 f0       	breq	.+50     	; 0x6e6 <main+0x12a>
     6b4:	1d c0       	rjmp	.+58     	; 0x6f0 <main+0x134>
		{			
			case Released:
			if (button_down(BUTTON2_MASK, 'E'))
     6b6:	65 e4       	ldi	r22, 0x45	; 69
     6b8:	82 e0       	ldi	r24, 0x02	; 2
     6ba:	0e 94 6f 00 	call	0xde	; 0xde <button_down>
     6be:	88 23       	and	r24, r24
     6c0:	c9 f0       	breq	.+50     	; 0x6f4 <main+0x138>
			{      
				release_state(1);
     6c2:	81 e0       	ldi	r24, 0x01	; 1
     6c4:	0e 94 57 02 	call	0x4ae	; 0x4ae <release_state>
     6c8:	15 c0       	rjmp	.+42     	; 0x6f4 <main+0x138>
			}
			break;
			case PushedDown_Wait:
			pusheddown_wait_state(BUTTON2_MASK,'E',1);
     6ca:	41 e0       	ldi	r20, 0x01	; 1
     6cc:	65 e4       	ldi	r22, 0x45	; 69
     6ce:	82 e0       	ldi	r24, 0x02	; 2
     6d0:	0e 94 67 02 	call	0x4ce	; 0x4ce <pusheddown_wait_state>
			break;
     6d4:	0f c0       	rjmp	.+30     	; 0x6f4 <main+0x138>
			case PushedDown_DoingSomething:
			pusheddown_doingsomething_state(BUTTON2_MASK, 'E', 1,"Rihtt" );
     6d6:	23 e9       	ldi	r18, 0x93	; 147
     6d8:	32 e5       	ldi	r19, 0x52	; 82
     6da:	41 e0       	ldi	r20, 0x01	; 1
     6dc:	65 e4       	ldi	r22, 0x45	; 69
     6de:	82 e0       	ldi	r24, 0x02	; 2
     6e0:	0e 94 87 02 	call	0x50e	; 0x50e <pusheddown_doingsomething_state>
			break;
     6e4:	07 c0       	rjmp	.+14     	; 0x6f4 <main+0x138>
			case Released_Wait:
			released_wait_state(BUTTON2_MASK,'E', 1);
     6e6:	41 e0       	ldi	r20, 0x01	; 1
     6e8:	65 e4       	ldi	r22, 0x45	; 69
     6ea:	82 e0       	ldi	r24, 0x02	; 2
     6ec:	0e 94 c1 02 	call	0x582	; 0x582 <released_wait_state>
			default:
			Button_Machines[1] = Released;
     6f0:	10 92 15 28 	sts	0x2815, r1	; 0x802815 <Button_Machines+0x1>
			break;
				
		}
		switch(Button_Machines[2])
     6f4:	80 91 16 28 	lds	r24, 0x2816	; 0x802816 <Button_Machines+0x2>
     6f8:	81 30       	cpi	r24, 0x01	; 1
     6fa:	81 f0       	breq	.+32     	; 0x71c <main+0x160>
     6fc:	28 f0       	brcs	.+10     	; 0x708 <main+0x14c>
     6fe:	82 30       	cpi	r24, 0x02	; 2
     700:	99 f0       	breq	.+38     	; 0x728 <main+0x16c>
     702:	83 30       	cpi	r24, 0x03	; 3
     704:	c9 f0       	breq	.+50     	; 0x738 <main+0x17c>
     706:	1d c0       	rjmp	.+58     	; 0x742 <main+0x186>
		{			
			case Released:
			if (button_down(BUTTON3_MASK, 'E'))
     708:	65 e4       	ldi	r22, 0x45	; 69
     70a:	81 e0       	ldi	r24, 0x01	; 1
     70c:	0e 94 6f 00 	call	0xde	; 0xde <button_down>
     710:	88 23       	and	r24, r24
     712:	c9 f0       	breq	.+50     	; 0x746 <main+0x18a>
			{      
				release_state(2);
     714:	82 e0       	ldi	r24, 0x02	; 2
     716:	0e 94 57 02 	call	0x4ae	; 0x4ae <release_state>
     71a:	15 c0       	rjmp	.+42     	; 0x746 <main+0x18a>
			}
			break;
			case PushedDown_Wait:
			pusheddown_wait_state(BUTTON3_MASK,'E',2);
     71c:	42 e0       	ldi	r20, 0x02	; 2
     71e:	65 e4       	ldi	r22, 0x45	; 69
     720:	81 e0       	ldi	r24, 0x01	; 1
     722:	0e 94 67 02 	call	0x4ce	; 0x4ce <pusheddown_wait_state>
			break;
     726:	0f c0       	rjmp	.+30     	; 0x746 <main+0x18a>
			case PushedDown_DoingSomething:
			pusheddown_doingsomething_state(BUTTON3_MASK, 'E', 2,"Down" );
     728:	29 e9       	ldi	r18, 0x99	; 153
     72a:	32 e5       	ldi	r19, 0x52	; 82
     72c:	42 e0       	ldi	r20, 0x02	; 2
     72e:	65 e4       	ldi	r22, 0x45	; 69
     730:	81 e0       	ldi	r24, 0x01	; 1
     732:	0e 94 87 02 	call	0x50e	; 0x50e <pusheddown_doingsomething_state>
			break;
     736:	07 c0       	rjmp	.+14     	; 0x746 <main+0x18a>
			case Released_Wait:
			released_wait_state(BUTTON2_MASK,'E', 2);
     738:	42 e0       	ldi	r20, 0x02	; 2
     73a:	65 e4       	ldi	r22, 0x45	; 69
     73c:	82 e0       	ldi	r24, 0x02	; 2
     73e:	0e 94 c1 02 	call	0x582	; 0x582 <released_wait_state>
			default:
			Button_Machines[2] = Released;
     742:	10 92 16 28 	sts	0x2816, r1	; 0x802816 <Button_Machines+0x2>
			break;
				
		}
		switch(Button_Machines[3])
     746:	80 91 17 28 	lds	r24, 0x2817	; 0x802817 <Button_Machines+0x3>
     74a:	81 30       	cpi	r24, 0x01	; 1
     74c:	89 f0       	breq	.+34     	; 0x770 <main+0x1b4>
     74e:	28 f0       	brcs	.+10     	; 0x75a <main+0x19e>
     750:	82 30       	cpi	r24, 0x02	; 2
     752:	a1 f0       	breq	.+40     	; 0x77c <main+0x1c0>
     754:	83 30       	cpi	r24, 0x03	; 3
     756:	d1 f0       	breq	.+52     	; 0x78c <main+0x1d0>
     758:	1e c0       	rjmp	.+60     	; 0x796 <main+0x1da>
		{			
			case Released:
			if (button_down(BUTTON4_MASK, 'B'))
     75a:	62 e4       	ldi	r22, 0x42	; 66
     75c:	82 e0       	ldi	r24, 0x02	; 2
     75e:	0e 94 6f 00 	call	0xde	; 0xde <button_down>
     762:	88 23       	and	r24, r24
     764:	09 f4       	brne	.+2      	; 0x768 <main+0x1ac>
     766:	74 cf       	rjmp	.-280    	; 0x650 <main+0x94>
			{      
				release_state(3);
     768:	83 e0       	ldi	r24, 0x03	; 3
     76a:	0e 94 57 02 	call	0x4ae	; 0x4ae <release_state>
     76e:	70 cf       	rjmp	.-288    	; 0x650 <main+0x94>
			}
			break;
			case PushedDown_Wait:
			pusheddown_wait_state(BUTTON4_MASK, 'B',3);
     770:	43 e0       	ldi	r20, 0x03	; 3
     772:	62 e4       	ldi	r22, 0x42	; 66
     774:	82 e0       	ldi	r24, 0x02	; 2
     776:	0e 94 67 02 	call	0x4ce	; 0x4ce <pusheddown_wait_state>
			break;
     77a:	6a cf       	rjmp	.-300    	; 0x650 <main+0x94>
			case PushedDown_DoingSomething:
			pusheddown_doingsomething_state(BUTTON4_MASK, 'B',3,"Up" );
     77c:	2e e9       	ldi	r18, 0x9E	; 158
     77e:	32 e5       	ldi	r19, 0x52	; 82
     780:	43 e0       	ldi	r20, 0x03	; 3
     782:	62 e4       	ldi	r22, 0x42	; 66
     784:	82 e0       	ldi	r24, 0x02	; 2
     786:	0e 94 87 02 	call	0x50e	; 0x50e <pusheddown_doingsomething_state>
			break;
     78a:	62 cf       	rjmp	.-316    	; 0x650 <main+0x94>
			case Released_Wait:
			released_wait_state(BUTTON4_MASK, 'B',3);
     78c:	43 e0       	ldi	r20, 0x03	; 3
     78e:	62 e4       	ldi	r22, 0x42	; 66
     790:	82 e0       	ldi	r24, 0x02	; 2
     792:	0e 94 c1 02 	call	0x582	; 0x582 <released_wait_state>
			default:
			Button_Machines[3] = Released;
     796:	10 92 17 28 	sts	0x2817, r1	; 0x802817 <Button_Machines+0x3>
			break;
     79a:	5a cf       	rjmp	.-332    	; 0x650 <main+0x94>

0000079c <__vector_12>:
		
	}
	
}

ISR(TCB0_INT_vect){
     79c:	1f 92       	push	r1
     79e:	0f 92       	push	r0
     7a0:	0f b6       	in	r0, 0x3f	; 63
     7a2:	0f 92       	push	r0
     7a4:	11 24       	eor	r1, r1
     7a6:	8f 93       	push	r24
     7a8:	9f 93       	push	r25
     7aa:	ef 93       	push	r30
     7ac:	ff 93       	push	r31
	TCB0.INTFLAGS = TCB_CAPT_bm;
     7ae:	81 e0       	ldi	r24, 0x01	; 1
     7b0:	80 93 86 0a 	sts	0x0A86, r24	; 0x800a86 <__TEXT_REGION_LENGTH__+0x7f4a86>
	if (Button_Timers[0]>0)
     7b4:	80 91 08 28 	lds	r24, 0x2808	; 0x802808 <Button_Timers>
     7b8:	90 91 09 28 	lds	r25, 0x2809	; 0x802809 <Button_Timers+0x1>
     7bc:	18 16       	cp	r1, r24
     7be:	19 06       	cpc	r1, r25
     7c0:	3c f4       	brge	.+14     	; 0x7d0 <__vector_12+0x34>
	{
		Button_Timers[0] --;
     7c2:	e8 e0       	ldi	r30, 0x08	; 8
     7c4:	f8 e2       	ldi	r31, 0x28	; 40
     7c6:	80 81       	ld	r24, Z
     7c8:	91 81       	ldd	r25, Z+1	; 0x01
     7ca:	01 97       	sbiw	r24, 0x01	; 1
     7cc:	80 83       	st	Z, r24
     7ce:	91 83       	std	Z+1, r25	; 0x01
	}
	if (Button_Timers[1]>0)
     7d0:	80 91 0a 28 	lds	r24, 0x280A	; 0x80280a <Button_Timers+0x2>
     7d4:	90 91 0b 28 	lds	r25, 0x280B	; 0x80280b <Button_Timers+0x3>
     7d8:	18 16       	cp	r1, r24
     7da:	19 06       	cpc	r1, r25
     7dc:	3c f4       	brge	.+14     	; 0x7ec <__vector_12+0x50>
	{
		Button_Timers[1] --;
     7de:	e8 e0       	ldi	r30, 0x08	; 8
     7e0:	f8 e2       	ldi	r31, 0x28	; 40
     7e2:	82 81       	ldd	r24, Z+2	; 0x02
     7e4:	93 81       	ldd	r25, Z+3	; 0x03
     7e6:	01 97       	sbiw	r24, 0x01	; 1
     7e8:	82 83       	std	Z+2, r24	; 0x02
     7ea:	93 83       	std	Z+3, r25	; 0x03
	}
	if (Button_Timers[2]>0)
     7ec:	80 91 0c 28 	lds	r24, 0x280C	; 0x80280c <Button_Timers+0x4>
     7f0:	90 91 0d 28 	lds	r25, 0x280D	; 0x80280d <Button_Timers+0x5>
     7f4:	18 16       	cp	r1, r24
     7f6:	19 06       	cpc	r1, r25
     7f8:	3c f4       	brge	.+14     	; 0x808 <__vector_12+0x6c>
	{
		Button_Timers[2] --;
     7fa:	e8 e0       	ldi	r30, 0x08	; 8
     7fc:	f8 e2       	ldi	r31, 0x28	; 40
     7fe:	84 81       	ldd	r24, Z+4	; 0x04
     800:	95 81       	ldd	r25, Z+5	; 0x05
     802:	01 97       	sbiw	r24, 0x01	; 1
     804:	84 83       	std	Z+4, r24	; 0x04
     806:	95 83       	std	Z+5, r25	; 0x05
	}
	if (Button_Timers[3]>0)
     808:	80 91 0e 28 	lds	r24, 0x280E	; 0x80280e <Button_Timers+0x6>
     80c:	90 91 0f 28 	lds	r25, 0x280F	; 0x80280f <Button_Timers+0x7>
     810:	18 16       	cp	r1, r24
     812:	19 06       	cpc	r1, r25
     814:	3c f4       	brge	.+14     	; 0x824 <__vector_12+0x88>
	{
		Button_Timers[3] --;
     816:	e8 e0       	ldi	r30, 0x08	; 8
     818:	f8 e2       	ldi	r31, 0x28	; 40
     81a:	86 81       	ldd	r24, Z+6	; 0x06
     81c:	97 81       	ldd	r25, Z+7	; 0x07
     81e:	01 97       	sbiw	r24, 0x01	; 1
     820:	86 83       	std	Z+6, r24	; 0x06
     822:	97 83       	std	Z+7, r25	; 0x07
	}
	switch(channel_looker)
     824:	80 91 24 28 	lds	r24, 0x2824	; 0x802824 <channel_looker>
     828:	82 30       	cpi	r24, 0x02	; 2
     82a:	99 f0       	breq	.+38     	; 0x852 <__vector_12+0xb6>
     82c:	28 f4       	brcc	.+10     	; 0x838 <__vector_12+0x9c>
     82e:	88 23       	and	r24, r24
     830:	49 f0       	breq	.+18     	; 0x844 <__vector_12+0xa8>
     832:	81 30       	cpi	r24, 0x01	; 1
     834:	51 f0       	breq	.+20     	; 0x84a <__vector_12+0xae>
     836:	1c c0       	rjmp	.+56     	; 0x870 <__vector_12+0xd4>
     838:	84 30       	cpi	r24, 0x04	; 4
     83a:	99 f0       	breq	.+38     	; 0x862 <__vector_12+0xc6>
     83c:	70 f0       	brcs	.+28     	; 0x85a <__vector_12+0xbe>
     83e:	85 30       	cpi	r24, 0x05	; 5
     840:	a1 f0       	breq	.+40     	; 0x86a <__vector_12+0xce>
     842:	16 c0       	rjmp	.+44     	; 0x870 <__vector_12+0xd4>
	{
		case 0:
		ADC0.MUXPOS = ADC_MUXPOS_AIN0_gc;
     844:	10 92 06 06 	sts	0x0606, r1	; 0x800606 <__TEXT_REGION_LENGTH__+0x7f4606>
		
		break;
     848:	13 c0       	rjmp	.+38     	; 0x870 <__vector_12+0xd4>
		
		case 1:
		ADC0.MUXPOS = ADC_MUXPOS_AIN1_gc;
     84a:	81 e0       	ldi	r24, 0x01	; 1
     84c:	80 93 06 06 	sts	0x0606, r24	; 0x800606 <__TEXT_REGION_LENGTH__+0x7f4606>
		break;
     850:	0f c0       	rjmp	.+30     	; 0x870 <__vector_12+0xd4>
		
		case 2:
		ADC0.MUXPOS = ADC_MUXPOS_AIN2_gc;
     852:	82 e0       	ldi	r24, 0x02	; 2
     854:	80 93 06 06 	sts	0x0606, r24	; 0x800606 <__TEXT_REGION_LENGTH__+0x7f4606>
		break;
     858:	0b c0       	rjmp	.+22     	; 0x870 <__vector_12+0xd4>
		
		case 3:
		ADC0.MUXPOS = ADC_MUXPOS_AIN3_gc;
     85a:	83 e0       	ldi	r24, 0x03	; 3
     85c:	80 93 06 06 	sts	0x0606, r24	; 0x800606 <__TEXT_REGION_LENGTH__+0x7f4606>
		break;
     860:	07 c0       	rjmp	.+14     	; 0x870 <__vector_12+0xd4>
		
		case 4:
		ADC0.MUXPOS = ADC_MUXPOS_AIN4_gc;
     862:	84 e0       	ldi	r24, 0x04	; 4
     864:	80 93 06 06 	sts	0x0606, r24	; 0x800606 <__TEXT_REGION_LENGTH__+0x7f4606>
		break;
     868:	03 c0       	rjmp	.+6      	; 0x870 <__vector_12+0xd4>
		
		case 5:
		ADC0.MUXPOS = ADC_MUXPOS_AIN5_gc;
     86a:	85 e0       	ldi	r24, 0x05	; 5
     86c:	80 93 06 06 	sts	0x0606, r24	; 0x800606 <__TEXT_REGION_LENGTH__+0x7f4606>
		break;
		
		//Ide egy iemr változó mindegyik gombra És ezt a Timert csökkentem de 0 alá ne menjen
	}
	ADC0.COMMAND = ADC_STCONV_bm;
     870:	81 e0       	ldi	r24, 0x01	; 1
     872:	80 93 08 06 	sts	0x0608, r24	; 0x800608 <__TEXT_REGION_LENGTH__+0x7f4608>
}
     876:	ff 91       	pop	r31
     878:	ef 91       	pop	r30
     87a:	9f 91       	pop	r25
     87c:	8f 91       	pop	r24
     87e:	0f 90       	pop	r0
     880:	0f be       	out	0x3f, r0	; 63
     882:	0f 90       	pop	r0
     884:	1f 90       	pop	r1
     886:	18 95       	reti

00000888 <put_to_buffer>:
	}
	USART3.TXDATAL = note_volume;
}*/

void put_to_buffer(uint8_t note_switch,uint8_t note_NOTE,uint8_t note_volume)
{
     888:	cf 93       	push	r28
     88a:	c6 2f       	mov	r28, r22
	if(bufferLength + 3 > SIZE_OF_BUFFER)
     88c:	20 91 28 28 	lds	r18, 0x2828	; 0x802828 <bufferLength>
     890:	30 e0       	ldi	r19, 0x00	; 0
     892:	2d 5f       	subi	r18, 0xFD	; 253
     894:	3f 4f       	sbci	r19, 0xFF	; 255
     896:	26 31       	cpi	r18, 0x16	; 22
     898:	31 05       	cpc	r19, r1
     89a:	cc f5       	brge	.+114    	; 0x90e <put_to_buffer+0x86>
	 {
		 return;
	 }
	 
	 buffer[writeIndex] = note_switch;
     89c:	e0 91 26 28 	lds	r30, 0x2826	; 0x802826 <writeIndex>
     8a0:	f0 e0       	ldi	r31, 0x00	; 0
     8a2:	e5 53       	subi	r30, 0x35	; 53
     8a4:	f6 4d       	sbci	r31, 0xD6	; 214
     8a6:	80 83       	st	Z, r24
	 writeIndex = (writeIndex + 1)%(SIZE_OF_BUFFER);
     8a8:	80 91 26 28 	lds	r24, 0x2826	; 0x802826 <writeIndex>
     8ac:	90 e0       	ldi	r25, 0x00	; 0
     8ae:	01 96       	adiw	r24, 0x01	; 1
     8b0:	25 e1       	ldi	r18, 0x15	; 21
     8b2:	30 e0       	ldi	r19, 0x00	; 0
     8b4:	b9 01       	movw	r22, r18
     8b6:	0e 94 14 06 	call	0xc28	; 0xc28 <__divmodhi4>
     8ba:	80 93 26 28 	sts	0x2826, r24	; 0x802826 <writeIndex>
	 buffer[writeIndex] = note_NOTE;
     8be:	e0 91 26 28 	lds	r30, 0x2826	; 0x802826 <writeIndex>
     8c2:	f0 e0       	ldi	r31, 0x00	; 0
     8c4:	e5 53       	subi	r30, 0x35	; 53
     8c6:	f6 4d       	sbci	r31, 0xD6	; 214
     8c8:	c0 83       	st	Z, r28
	 writeIndex = (writeIndex + 1)%(SIZE_OF_BUFFER);
     8ca:	80 91 26 28 	lds	r24, 0x2826	; 0x802826 <writeIndex>
     8ce:	90 e0       	ldi	r25, 0x00	; 0
     8d0:	01 96       	adiw	r24, 0x01	; 1
     8d2:	b9 01       	movw	r22, r18
     8d4:	0e 94 14 06 	call	0xc28	; 0xc28 <__divmodhi4>
     8d8:	80 93 26 28 	sts	0x2826, r24	; 0x802826 <writeIndex>
	 buffer[writeIndex] = note_volume;
     8dc:	e0 91 26 28 	lds	r30, 0x2826	; 0x802826 <writeIndex>
     8e0:	f0 e0       	ldi	r31, 0x00	; 0
     8e2:	e5 53       	subi	r30, 0x35	; 53
     8e4:	f6 4d       	sbci	r31, 0xD6	; 214
     8e6:	40 83       	st	Z, r20
	 writeIndex = (writeIndex + 1)%(SIZE_OF_BUFFER);
     8e8:	80 91 26 28 	lds	r24, 0x2826	; 0x802826 <writeIndex>
     8ec:	90 e0       	ldi	r25, 0x00	; 0
     8ee:	01 96       	adiw	r24, 0x01	; 1
     8f0:	b9 01       	movw	r22, r18
     8f2:	0e 94 14 06 	call	0xc28	; 0xc28 <__divmodhi4>
     8f6:	80 93 26 28 	sts	0x2826, r24	; 0x802826 <writeIndex>
	 bufferLength += 3;
     8fa:	80 91 28 28 	lds	r24, 0x2828	; 0x802828 <bufferLength>
     8fe:	8d 5f       	subi	r24, 0xFD	; 253
     900:	80 93 28 28 	sts	0x2828, r24	; 0x802828 <bufferLength>
	 USART3.CTRLA |= USART_DREIE_bm; 
     904:	e0 e6       	ldi	r30, 0x60	; 96
     906:	f8 e0       	ldi	r31, 0x08	; 8
     908:	85 81       	ldd	r24, Z+5	; 0x05
     90a:	80 62       	ori	r24, 0x20	; 32
     90c:	85 83       	std	Z+5, r24	; 0x05
}
     90e:	cf 91       	pop	r28
     910:	08 95       	ret

00000912 <__vector_22>:
		//Ide egy iemr változó mindegyik gombra És ezt a Timert csökkentem de 0 alá ne menjen
	}
	ADC0.COMMAND = ADC_STCONV_bm;
}
ISR(ADC0_RESRDY_vect)
{
     912:	1f 92       	push	r1
     914:	0f 92       	push	r0
     916:	0f b6       	in	r0, 0x3f	; 63
     918:	0f 92       	push	r0
     91a:	11 24       	eor	r1, r1
     91c:	2f 93       	push	r18
     91e:	3f 93       	push	r19
     920:	4f 93       	push	r20
     922:	5f 93       	push	r21
     924:	6f 93       	push	r22
     926:	7f 93       	push	r23
     928:	8f 93       	push	r24
     92a:	9f 93       	push	r25
     92c:	af 93       	push	r26
     92e:	bf 93       	push	r27
     930:	ef 93       	push	r30
     932:	ff 93       	push	r31
	
	uint16_t sample = ADC0.RES;
     934:	20 91 10 06 	lds	r18, 0x0610	; 0x800610 <__TEXT_REGION_LENGTH__+0x7f4610>
     938:	30 91 11 06 	lds	r19, 0x0611	; 0x800611 <__TEXT_REGION_LENGTH__+0x7f4611>
	}
	else
	{
		n = 0;
	}*/
	switch(state[channel_looker])
     93c:	e0 91 24 28 	lds	r30, 0x2824	; 0x802824 <channel_looker>
     940:	f0 e0       	ldi	r31, 0x00	; 0
     942:	ee 5f       	subi	r30, 0xFE	; 254
     944:	f7 4d       	sbci	r31, 0xD7	; 215
     946:	80 81       	ld	r24, Z
     948:	88 23       	and	r24, r24
     94a:	21 f0       	breq	.+8      	; 0x954 <__vector_22+0x42>
     94c:	81 30       	cpi	r24, 0x01	; 1
     94e:	09 f4       	brne	.+2      	; 0x952 <__vector_22+0x40>
     950:	a3 c0       	rjmp	.+326    	; 0xa98 <__vector_22+0x186>
     952:	1c c1       	rjmp	.+568    	; 0xb8c <__vector_22+0x27a>
	{
		case Default_state:
		if (sample > min_velocity[channel_looker]){
     954:	e0 91 24 28 	lds	r30, 0x2824	; 0x802824 <channel_looker>
     958:	f0 e0       	ldi	r31, 0x00	; 0
     95a:	ee 0f       	add	r30, r30
     95c:	ff 1f       	adc	r31, r31
     95e:	e9 55       	subi	r30, 0x59	; 89
     960:	fd 4a       	sbci	r31, 0xAD	; 173
     962:	80 81       	ld	r24, Z
     964:	91 81       	ldd	r25, Z+1	; 0x01
     966:	82 17       	cp	r24, r18
     968:	93 07       	cpc	r25, r19
     96a:	88 f4       	brcc	.+34     	; 0x98e <__vector_22+0x7c>
			actual_max_velo[channel_looker] = sample;
     96c:	e0 91 24 28 	lds	r30, 0x2824	; 0x802824 <channel_looker>
     970:	f0 e0       	ldi	r31, 0x00	; 0
     972:	ee 0f       	add	r30, r30
     974:	ff 1f       	adc	r31, r31
     976:	e7 54       	subi	r30, 0x47	; 71
     978:	f6 4d       	sbci	r31, 0xD6	; 214
     97a:	20 83       	st	Z, r18
     97c:	31 83       	std	Z+1, r19	; 0x01
			state[channel_looker] = There_was_hit;
     97e:	e0 91 24 28 	lds	r30, 0x2824	; 0x802824 <channel_looker>
     982:	f0 e0       	ldi	r31, 0x00	; 0
     984:	ee 5f       	subi	r30, 0xFE	; 254
     986:	f7 4d       	sbci	r31, 0xD7	; 215
     988:	81 e0       	ldi	r24, 0x01	; 1
     98a:	80 83       	st	Z, r24
     98c:	0a c0       	rjmp	.+20     	; 0x9a2 <__vector_22+0x90>
		}
		else
		{
			channel_looker = (channel_looker+1)%(5);
     98e:	80 91 24 28 	lds	r24, 0x2824	; 0x802824 <channel_looker>
     992:	90 e0       	ldi	r25, 0x00	; 0
     994:	01 96       	adiw	r24, 0x01	; 1
     996:	65 e0       	ldi	r22, 0x05	; 5
     998:	70 e0       	ldi	r23, 0x00	; 0
     99a:	0e 94 14 06 	call	0xc28	; 0xc28 <__divmodhi4>
     99e:	80 93 24 28 	sts	0x2824, r24	; 0x802824 <channel_looker>
		}
		//Növeli a hit timert, ha már volt ütés
		if (hit_couter[channel_looker] < time_note && hit_couter[channel_looker] > 0)
     9a2:	e0 91 24 28 	lds	r30, 0x2824	; 0x802824 <channel_looker>
     9a6:	f0 e0       	ldi	r31, 0x00	; 0
     9a8:	ee 0f       	add	r30, r30
     9aa:	ff 1f       	adc	r31, r31
     9ac:	e8 5e       	subi	r30, 0xE8	; 232
     9ae:	f7 4d       	sbci	r31, 0xD7	; 215
     9b0:	20 81       	ld	r18, Z
     9b2:	31 81       	ldd	r19, Z+1	; 0x01
     9b4:	80 91 00 28 	lds	r24, 0x2800	; 0x802800 <__DATA_REGION_ORIGIN__>
     9b8:	90 91 01 28 	lds	r25, 0x2801	; 0x802801 <__DATA_REGION_ORIGIN__+0x1>
     9bc:	28 17       	cp	r18, r24
     9be:	39 07       	cpc	r19, r25
     9c0:	b8 f4       	brcc	.+46     	; 0x9f0 <__vector_22+0xde>
     9c2:	e0 91 24 28 	lds	r30, 0x2824	; 0x802824 <channel_looker>
     9c6:	f0 e0       	ldi	r31, 0x00	; 0
     9c8:	ee 0f       	add	r30, r30
     9ca:	ff 1f       	adc	r31, r31
     9cc:	e8 5e       	subi	r30, 0xE8	; 232
     9ce:	f7 4d       	sbci	r31, 0xD7	; 215
     9d0:	80 81       	ld	r24, Z
     9d2:	91 81       	ldd	r25, Z+1	; 0x01
     9d4:	89 2b       	or	r24, r25
     9d6:	61 f0       	breq	.+24     	; 0x9f0 <__vector_22+0xde>
		{
			hit_couter[channel_looker] ++;
     9d8:	e0 91 24 28 	lds	r30, 0x2824	; 0x802824 <channel_looker>
     9dc:	f0 e0       	ldi	r31, 0x00	; 0
     9de:	ee 0f       	add	r30, r30
     9e0:	ff 1f       	adc	r31, r31
     9e2:	e8 5e       	subi	r30, 0xE8	; 232
     9e4:	f7 4d       	sbci	r31, 0xD7	; 215
     9e6:	80 81       	ld	r24, Z
     9e8:	91 81       	ldd	r25, Z+1	; 0x01
     9ea:	01 96       	adiw	r24, 0x01	; 1
     9ec:	80 83       	st	Z, r24
     9ee:	91 83       	std	Z+1, r25	; 0x01
		}
		//belelír, ha volt ütés és lejárt az idõ
		if(hit_couter[channel_looker] > time_note)
     9f0:	e0 91 24 28 	lds	r30, 0x2824	; 0x802824 <channel_looker>
     9f4:	f0 e0       	ldi	r31, 0x00	; 0
     9f6:	ee 0f       	add	r30, r30
     9f8:	ff 1f       	adc	r31, r31
     9fa:	e8 5e       	subi	r30, 0xE8	; 232
     9fc:	f7 4d       	sbci	r31, 0xD7	; 215
     9fe:	20 81       	ld	r18, Z
     a00:	31 81       	ldd	r19, Z+1	; 0x01
     a02:	80 91 00 28 	lds	r24, 0x2800	; 0x802800 <__DATA_REGION_ORIGIN__>
     a06:	90 91 01 28 	lds	r25, 0x2801	; 0x802801 <__DATA_REGION_ORIGIN__+0x1>
     a0a:	82 17       	cp	r24, r18
     a0c:	93 07       	cpc	r25, r19
     a0e:	08 f0       	brcs	.+2      	; 0xa12 <__vector_22+0x100>
     a10:	bd c0       	rjmp	.+378    	; 0xb8c <__vector_22+0x27a>
		{
			note_velocity[channel_looker] = (uint8_t)actual_max_velo[channel_looker];
     a12:	e0 91 24 28 	lds	r30, 0x2824	; 0x802824 <channel_looker>
     a16:	8e 2f       	mov	r24, r30
     a18:	90 e0       	ldi	r25, 0x00	; 0
     a1a:	e0 91 24 28 	lds	r30, 0x2824	; 0x802824 <channel_looker>
     a1e:	f0 e0       	ldi	r31, 0x00	; 0
     a20:	ee 0f       	add	r30, r30
     a22:	ff 1f       	adc	r31, r31
     a24:	e7 54       	subi	r30, 0x47	; 71
     a26:	f6 4d       	sbci	r31, 0xD6	; 214
     a28:	20 81       	ld	r18, Z
     a2a:	31 81       	ldd	r19, Z+1	; 0x01
     a2c:	fc 01       	movw	r30, r24
     a2e:	eb 53       	subi	r30, 0x3B	; 59
     a30:	f6 4d       	sbci	r31, 0xD6	; 214
     a32:	20 83       	st	Z, r18
			if(note_velocity[channel_looker] > 127)
     a34:	e0 91 24 28 	lds	r30, 0x2824	; 0x802824 <channel_looker>
     a38:	f0 e0       	ldi	r31, 0x00	; 0
     a3a:	eb 53       	subi	r30, 0x3B	; 59
     a3c:	f6 4d       	sbci	r31, 0xD6	; 214
     a3e:	80 81       	ld	r24, Z
     a40:	88 23       	and	r24, r24
     a42:	3c f4       	brge	.+14     	; 0xa52 <__vector_22+0x140>
			{
				note_velocity[channel_looker] = 127;
     a44:	e0 91 24 28 	lds	r30, 0x2824	; 0x802824 <channel_looker>
     a48:	f0 e0       	ldi	r31, 0x00	; 0
     a4a:	eb 53       	subi	r30, 0x3B	; 59
     a4c:	f6 4d       	sbci	r31, 0xD6	; 214
     a4e:	8f e7       	ldi	r24, 0x7F	; 127
     a50:	80 83       	st	Z, r24
			}
				put_to_buffer(note_on,note_C[channel_looker],note_velocity[channel_looker]);
     a52:	e0 91 24 28 	lds	r30, 0x2824	; 0x802824 <channel_looker>
     a56:	f0 e0       	ldi	r31, 0x00	; 0
     a58:	eb 53       	subi	r30, 0x3B	; 59
     a5a:	f6 4d       	sbci	r31, 0xD6	; 214
     a5c:	40 81       	ld	r20, Z
     a5e:	e0 91 24 28 	lds	r30, 0x2824	; 0x802824 <channel_looker>
     a62:	f0 e0       	ldi	r31, 0x00	; 0
     a64:	ef 55       	subi	r30, 0x5F	; 95
     a66:	fd 4a       	sbci	r31, 0xAD	; 173
     a68:	60 81       	ld	r22, Z
     a6a:	80 e9       	ldi	r24, 0x90	; 144
     a6c:	0e 94 44 04 	call	0x888	; 0x888 <put_to_buffer>
			
			//GND-t mérni váltások között TÖRÖLN
			/*ADC0.MUXPOS = ADC_MUXPOS_GND_gc;
			sample = ADC0.RES;*/
			//////////////////////////////////////////////////////////////////////////////////////////////////////////////
			hit_couter[channel_looker] = 0;
     a70:	e0 91 24 28 	lds	r30, 0x2824	; 0x802824 <channel_looker>
     a74:	f0 e0       	ldi	r31, 0x00	; 0
     a76:	ee 0f       	add	r30, r30
     a78:	ff 1f       	adc	r31, r31
     a7a:	e8 5e       	subi	r30, 0xE8	; 232
     a7c:	f7 4d       	sbci	r31, 0xD7	; 215
     a7e:	10 82       	st	Z, r1
     a80:	11 82       	std	Z+1, r1	; 0x01
			//Channel change
			channel_looker = (channel_looker+1)%(5);
     a82:	80 91 24 28 	lds	r24, 0x2824	; 0x802824 <channel_looker>
     a86:	90 e0       	ldi	r25, 0x00	; 0
     a88:	01 96       	adiw	r24, 0x01	; 1
     a8a:	65 e0       	ldi	r22, 0x05	; 5
     a8c:	70 e0       	ldi	r23, 0x00	; 0
     a8e:	0e 94 14 06 	call	0xc28	; 0xc28 <__divmodhi4>
     a92:	80 93 24 28 	sts	0x2824, r24	; 0x802824 <channel_looker>
     a96:	7a c0       	rjmp	.+244    	; 0xb8c <__vector_22+0x27a>
		}
		break;
		case There_was_hit:
		if (actual_max_velo[channel_looker] < sample)
     a98:	e0 91 24 28 	lds	r30, 0x2824	; 0x802824 <channel_looker>
     a9c:	f0 e0       	ldi	r31, 0x00	; 0
     a9e:	ee 0f       	add	r30, r30
     aa0:	ff 1f       	adc	r31, r31
     aa2:	e7 54       	subi	r30, 0x47	; 71
     aa4:	f6 4d       	sbci	r31, 0xD6	; 214
     aa6:	80 81       	ld	r24, Z
     aa8:	91 81       	ldd	r25, Z+1	; 0x01
     aaa:	82 17       	cp	r24, r18
     aac:	93 07       	cpc	r25, r19
     aae:	48 f4       	brcc	.+18     	; 0xac2 <__vector_22+0x1b0>
		{
			actual_max_velo[channel_looker] = sample;
     ab0:	e0 91 24 28 	lds	r30, 0x2824	; 0x802824 <channel_looker>
     ab4:	f0 e0       	ldi	r31, 0x00	; 0
     ab6:	ee 0f       	add	r30, r30
     ab8:	ff 1f       	adc	r31, r31
     aba:	e7 54       	subi	r30, 0x47	; 71
     abc:	f6 4d       	sbci	r31, 0xD6	; 214
     abe:	20 83       	st	Z, r18
     ac0:	31 83       	std	Z+1, r19	; 0x01
		}
		if (hit_couter[channel_looker] < time_note)
     ac2:	e0 91 24 28 	lds	r30, 0x2824	; 0x802824 <channel_looker>
     ac6:	f0 e0       	ldi	r31, 0x00	; 0
     ac8:	ee 0f       	add	r30, r30
     aca:	ff 1f       	adc	r31, r31
     acc:	e8 5e       	subi	r30, 0xE8	; 232
     ace:	f7 4d       	sbci	r31, 0xD7	; 215
     ad0:	20 81       	ld	r18, Z
     ad2:	31 81       	ldd	r19, Z+1	; 0x01
     ad4:	80 91 00 28 	lds	r24, 0x2800	; 0x802800 <__DATA_REGION_ORIGIN__>
     ad8:	90 91 01 28 	lds	r25, 0x2801	; 0x802801 <__DATA_REGION_ORIGIN__+0x1>
     adc:	28 17       	cp	r18, r24
     ade:	39 07       	cpc	r19, r25
     ae0:	68 f4       	brcc	.+26     	; 0xafc <__vector_22+0x1ea>
		{
			hit_couter[channel_looker] ++;
     ae2:	e0 91 24 28 	lds	r30, 0x2824	; 0x802824 <channel_looker>
     ae6:	f0 e0       	ldi	r31, 0x00	; 0
     ae8:	ee 0f       	add	r30, r30
     aea:	ff 1f       	adc	r31, r31
     aec:	e8 5e       	subi	r30, 0xE8	; 232
     aee:	f7 4d       	sbci	r31, 0xD7	; 215
     af0:	80 81       	ld	r24, Z
     af2:	91 81       	ldd	r25, Z+1	; 0x01
     af4:	01 96       	adiw	r24, 0x01	; 1
     af6:	80 83       	st	Z, r24
     af8:	91 83       	std	Z+1, r25	; 0x01
     afa:	48 c0       	rjmp	.+144    	; 0xb8c <__vector_22+0x27a>
		}
		else
		{
			
			note_velocity[channel_looker] = (uint8_t)actual_max_velo[channel_looker];
     afc:	e0 91 24 28 	lds	r30, 0x2824	; 0x802824 <channel_looker>
     b00:	8e 2f       	mov	r24, r30
     b02:	90 e0       	ldi	r25, 0x00	; 0
     b04:	e0 91 24 28 	lds	r30, 0x2824	; 0x802824 <channel_looker>
     b08:	f0 e0       	ldi	r31, 0x00	; 0
     b0a:	ee 0f       	add	r30, r30
     b0c:	ff 1f       	adc	r31, r31
     b0e:	e7 54       	subi	r30, 0x47	; 71
     b10:	f6 4d       	sbci	r31, 0xD6	; 214
     b12:	20 81       	ld	r18, Z
     b14:	31 81       	ldd	r19, Z+1	; 0x01
     b16:	fc 01       	movw	r30, r24
     b18:	eb 53       	subi	r30, 0x3B	; 59
     b1a:	f6 4d       	sbci	r31, 0xD6	; 214
     b1c:	20 83       	st	Z, r18
			if(note_velocity[channel_looker] > 127)
     b1e:	e0 91 24 28 	lds	r30, 0x2824	; 0x802824 <channel_looker>
     b22:	f0 e0       	ldi	r31, 0x00	; 0
     b24:	eb 53       	subi	r30, 0x3B	; 59
     b26:	f6 4d       	sbci	r31, 0xD6	; 214
     b28:	80 81       	ld	r24, Z
     b2a:	88 23       	and	r24, r24
     b2c:	3c f4       	brge	.+14     	; 0xb3c <__vector_22+0x22a>
			{
				note_velocity[channel_looker] = 127;
     b2e:	e0 91 24 28 	lds	r30, 0x2824	; 0x802824 <channel_looker>
     b32:	f0 e0       	ldi	r31, 0x00	; 0
     b34:	eb 53       	subi	r30, 0x3B	; 59
     b36:	f6 4d       	sbci	r31, 0xD6	; 214
     b38:	8f e7       	ldi	r24, 0x7F	; 127
     b3a:	80 83       	st	Z, r24
			}
				put_to_buffer(note_on,note_C[channel_looker],note_velocity[channel_looker]);
     b3c:	e0 91 24 28 	lds	r30, 0x2824	; 0x802824 <channel_looker>
     b40:	f0 e0       	ldi	r31, 0x00	; 0
     b42:	eb 53       	subi	r30, 0x3B	; 59
     b44:	f6 4d       	sbci	r31, 0xD6	; 214
     b46:	40 81       	ld	r20, Z
     b48:	e0 91 24 28 	lds	r30, 0x2824	; 0x802824 <channel_looker>
     b4c:	f0 e0       	ldi	r31, 0x00	; 0
     b4e:	ef 55       	subi	r30, 0x5F	; 95
     b50:	fd 4a       	sbci	r31, 0xAD	; 173
     b52:	60 81       	ld	r22, Z
     b54:	80 e9       	ldi	r24, 0x90	; 144
     b56:	0e 94 44 04 	call	0x888	; 0x888 <put_to_buffer>
			
			//GND-t mérni váltások között TÖRÖLN
			/*ADC0.MUXPOS = ADC_MUXPOS_GND_gc;
			sample = ADC0.RES;*/
			//////////////////////////////////////////////////////////////////////////////////////////////////////////////
			hit_couter[channel_looker] = 0;
     b5a:	e0 91 24 28 	lds	r30, 0x2824	; 0x802824 <channel_looker>
     b5e:	f0 e0       	ldi	r31, 0x00	; 0
     b60:	ee 0f       	add	r30, r30
     b62:	ff 1f       	adc	r31, r31
     b64:	e8 5e       	subi	r30, 0xE8	; 232
     b66:	f7 4d       	sbci	r31, 0xD7	; 215
     b68:	10 82       	st	Z, r1
     b6a:	11 82       	std	Z+1, r1	; 0x01
			state[channel_looker] = Default_state;
     b6c:	e0 91 24 28 	lds	r30, 0x2824	; 0x802824 <channel_looker>
     b70:	f0 e0       	ldi	r31, 0x00	; 0
     b72:	ee 5f       	subi	r30, 0xFE	; 254
     b74:	f7 4d       	sbci	r31, 0xD7	; 215
     b76:	10 82       	st	Z, r1
			channel_looker = (channel_looker+1)%(5);
     b78:	80 91 24 28 	lds	r24, 0x2824	; 0x802824 <channel_looker>
     b7c:	90 e0       	ldi	r25, 0x00	; 0
     b7e:	01 96       	adiw	r24, 0x01	; 1
     b80:	65 e0       	ldi	r22, 0x05	; 5
     b82:	70 e0       	ldi	r23, 0x00	; 0
     b84:	0e 94 14 06 	call	0xc28	; 0xc28 <__divmodhi4>
     b88:	80 93 24 28 	sts	0x2824, r24	; 0x802824 <channel_looker>
	}
	
	
	
	
}
     b8c:	ff 91       	pop	r31
     b8e:	ef 91       	pop	r30
     b90:	bf 91       	pop	r27
     b92:	af 91       	pop	r26
     b94:	9f 91       	pop	r25
     b96:	8f 91       	pop	r24
     b98:	7f 91       	pop	r23
     b9a:	6f 91       	pop	r22
     b9c:	5f 91       	pop	r21
     b9e:	4f 91       	pop	r20
     ba0:	3f 91       	pop	r19
     ba2:	2f 91       	pop	r18
     ba4:	0f 90       	pop	r0
     ba6:	0f be       	out	0x3f, r0	; 63
     ba8:	0f 90       	pop	r0
     baa:	1f 90       	pop	r1
     bac:	18 95       	reti

00000bae <__vector_38>:
	 bufferLength += 3;
	 USART3.CTRLA |= USART_DREIE_bm; 
}
 
ISR(USART3_DRE_vect)
{
     bae:	1f 92       	push	r1
     bb0:	0f 92       	push	r0
     bb2:	0f b6       	in	r0, 0x3f	; 63
     bb4:	0f 92       	push	r0
     bb6:	11 24       	eor	r1, r1
     bb8:	5f 93       	push	r21
     bba:	6f 93       	push	r22
     bbc:	7f 93       	push	r23
     bbe:	8f 93       	push	r24
     bc0:	9f 93       	push	r25
     bc2:	af 93       	push	r26
     bc4:	bf 93       	push	r27
     bc6:	ef 93       	push	r30
     bc8:	ff 93       	push	r31
	
	if(bufferLength == 0)
     bca:	80 91 28 28 	lds	r24, 0x2828	; 0x802828 <bufferLength>
     bce:	81 11       	cpse	r24, r1
     bd0:	06 c0       	rjmp	.+12     	; 0xbde <__vector_38+0x30>
	{
		USART3.CTRLA &= ~USART_DREIE_bm;
     bd2:	e0 e6       	ldi	r30, 0x60	; 96
     bd4:	f8 e0       	ldi	r31, 0x08	; 8
     bd6:	85 81       	ldd	r24, Z+5	; 0x05
     bd8:	8f 7d       	andi	r24, 0xDF	; 223
     bda:	85 83       	std	Z+5, r24	; 0x05
     bdc:	17 c0       	rjmp	.+46     	; 0xc0c <__vector_38+0x5e>
		
	}
	else
	{
		USART3.TXDATAL = buffer[readIndex];
     bde:	e0 91 27 28 	lds	r30, 0x2827	; 0x802827 <readIndex>
     be2:	f0 e0       	ldi	r31, 0x00	; 0
     be4:	e5 53       	subi	r30, 0x35	; 53
     be6:	f6 4d       	sbci	r31, 0xD6	; 214
     be8:	80 81       	ld	r24, Z
     bea:	80 93 62 08 	sts	0x0862, r24	; 0x800862 <__TEXT_REGION_LENGTH__+0x7f4862>
		readIndex = (readIndex + 1)%(SIZE_OF_BUFFER);
     bee:	80 91 27 28 	lds	r24, 0x2827	; 0x802827 <readIndex>
     bf2:	90 e0       	ldi	r25, 0x00	; 0
     bf4:	01 96       	adiw	r24, 0x01	; 1
     bf6:	65 e1       	ldi	r22, 0x15	; 21
     bf8:	70 e0       	ldi	r23, 0x00	; 0
     bfa:	0e 94 14 06 	call	0xc28	; 0xc28 <__divmodhi4>
     bfe:	80 93 27 28 	sts	0x2827, r24	; 0x802827 <readIndex>
		bufferLength --;
     c02:	80 91 28 28 	lds	r24, 0x2828	; 0x802828 <bufferLength>
     c06:	81 50       	subi	r24, 0x01	; 1
     c08:	80 93 28 28 	sts	0x2828, r24	; 0x802828 <bufferLength>
	}
     c0c:	ff 91       	pop	r31
     c0e:	ef 91       	pop	r30
     c10:	bf 91       	pop	r27
     c12:	af 91       	pop	r26
     c14:	9f 91       	pop	r25
     c16:	8f 91       	pop	r24
     c18:	7f 91       	pop	r23
     c1a:	6f 91       	pop	r22
     c1c:	5f 91       	pop	r21
     c1e:	0f 90       	pop	r0
     c20:	0f be       	out	0x3f, r0	; 63
     c22:	0f 90       	pop	r0
     c24:	1f 90       	pop	r1
     c26:	18 95       	reti

00000c28 <__divmodhi4>:
     c28:	97 fb       	bst	r25, 7
     c2a:	07 2e       	mov	r0, r23
     c2c:	16 f4       	brtc	.+4      	; 0xc32 <__divmodhi4+0xa>
     c2e:	00 94       	com	r0
     c30:	07 d0       	rcall	.+14     	; 0xc40 <__divmodhi4_neg1>
     c32:	77 fd       	sbrc	r23, 7
     c34:	09 d0       	rcall	.+18     	; 0xc48 <__divmodhi4_neg2>
     c36:	0e 94 28 06 	call	0xc50	; 0xc50 <__udivmodhi4>
     c3a:	07 fc       	sbrc	r0, 7
     c3c:	05 d0       	rcall	.+10     	; 0xc48 <__divmodhi4_neg2>
     c3e:	3e f4       	brtc	.+14     	; 0xc4e <__divmodhi4_exit>

00000c40 <__divmodhi4_neg1>:
     c40:	90 95       	com	r25
     c42:	81 95       	neg	r24
     c44:	9f 4f       	sbci	r25, 0xFF	; 255
     c46:	08 95       	ret

00000c48 <__divmodhi4_neg2>:
     c48:	70 95       	com	r23
     c4a:	61 95       	neg	r22
     c4c:	7f 4f       	sbci	r23, 0xFF	; 255

00000c4e <__divmodhi4_exit>:
     c4e:	08 95       	ret

00000c50 <__udivmodhi4>:
     c50:	aa 1b       	sub	r26, r26
     c52:	bb 1b       	sub	r27, r27
     c54:	51 e1       	ldi	r21, 0x11	; 17
     c56:	07 c0       	rjmp	.+14     	; 0xc66 <__udivmodhi4_ep>

00000c58 <__udivmodhi4_loop>:
     c58:	aa 1f       	adc	r26, r26
     c5a:	bb 1f       	adc	r27, r27
     c5c:	a6 17       	cp	r26, r22
     c5e:	b7 07       	cpc	r27, r23
     c60:	10 f0       	brcs	.+4      	; 0xc66 <__udivmodhi4_ep>
     c62:	a6 1b       	sub	r26, r22
     c64:	b7 0b       	sbc	r27, r23

00000c66 <__udivmodhi4_ep>:
     c66:	88 1f       	adc	r24, r24
     c68:	99 1f       	adc	r25, r25
     c6a:	5a 95       	dec	r21
     c6c:	a9 f7       	brne	.-22     	; 0xc58 <__udivmodhi4_loop>
     c6e:	80 95       	com	r24
     c70:	90 95       	com	r25
     c72:	bc 01       	movw	r22, r24
     c74:	cd 01       	movw	r24, r26
     c76:	08 95       	ret

00000c78 <sprintf>:
     c78:	ae e0       	ldi	r26, 0x0E	; 14
     c7a:	b0 e0       	ldi	r27, 0x00	; 0
     c7c:	e2 e4       	ldi	r30, 0x42	; 66
     c7e:	f6 e0       	ldi	r31, 0x06	; 6
     c80:	0c 94 03 09 	jmp	0x1206	; 0x1206 <__prologue_saves__+0x1c>
     c84:	0d 89       	ldd	r16, Y+21	; 0x15
     c86:	1e 89       	ldd	r17, Y+22	; 0x16
     c88:	86 e0       	ldi	r24, 0x06	; 6
     c8a:	8c 83       	std	Y+4, r24	; 0x04
     c8c:	09 83       	std	Y+1, r16	; 0x01
     c8e:	1a 83       	std	Y+2, r17	; 0x02
     c90:	8f ef       	ldi	r24, 0xFF	; 255
     c92:	9f e7       	ldi	r25, 0x7F	; 127
     c94:	8d 83       	std	Y+5, r24	; 0x05
     c96:	9e 83       	std	Y+6, r25	; 0x06
     c98:	ae 01       	movw	r20, r28
     c9a:	47 5e       	subi	r20, 0xE7	; 231
     c9c:	5f 4f       	sbci	r21, 0xFF	; 255
     c9e:	6f 89       	ldd	r22, Y+23	; 0x17
     ca0:	78 8d       	ldd	r23, Y+24	; 0x18
     ca2:	ce 01       	movw	r24, r28
     ca4:	01 96       	adiw	r24, 0x01	; 1
     ca6:	0e 94 5e 06 	call	0xcbc	; 0xcbc <vfprintf>
     caa:	ef 81       	ldd	r30, Y+7	; 0x07
     cac:	f8 85       	ldd	r31, Y+8	; 0x08
     cae:	e0 0f       	add	r30, r16
     cb0:	f1 1f       	adc	r31, r17
     cb2:	10 82       	st	Z, r1
     cb4:	2e 96       	adiw	r28, 0x0e	; 14
     cb6:	e4 e0       	ldi	r30, 0x04	; 4
     cb8:	0c 94 1c 09 	jmp	0x1238	; 0x1238 <__epilogue_restores__+0x1c>

00000cbc <vfprintf>:
     cbc:	ab e0       	ldi	r26, 0x0B	; 11
     cbe:	b0 e0       	ldi	r27, 0x00	; 0
     cc0:	e4 e6       	ldi	r30, 0x64	; 100
     cc2:	f6 e0       	ldi	r31, 0x06	; 6
     cc4:	0c 94 f5 08 	jmp	0x11ea	; 0x11ea <__prologue_saves__>
     cc8:	6c 01       	movw	r12, r24
     cca:	7b 01       	movw	r14, r22
     ccc:	8a 01       	movw	r16, r20
     cce:	fc 01       	movw	r30, r24
     cd0:	16 82       	std	Z+6, r1	; 0x06
     cd2:	17 82       	std	Z+7, r1	; 0x07
     cd4:	83 81       	ldd	r24, Z+3	; 0x03
     cd6:	81 ff       	sbrs	r24, 1
     cd8:	cc c1       	rjmp	.+920    	; 0x1072 <vfprintf+0x3b6>
     cda:	ce 01       	movw	r24, r28
     cdc:	01 96       	adiw	r24, 0x01	; 1
     cde:	3c 01       	movw	r6, r24
     ce0:	f6 01       	movw	r30, r12
     ce2:	93 81       	ldd	r25, Z+3	; 0x03
     ce4:	f7 01       	movw	r30, r14
     ce6:	93 fd       	sbrc	r25, 3
     ce8:	85 91       	lpm	r24, Z+
     cea:	93 ff       	sbrs	r25, 3
     cec:	81 91       	ld	r24, Z+
     cee:	7f 01       	movw	r14, r30
     cf0:	88 23       	and	r24, r24
     cf2:	09 f4       	brne	.+2      	; 0xcf6 <vfprintf+0x3a>
     cf4:	ba c1       	rjmp	.+884    	; 0x106a <vfprintf+0x3ae>
     cf6:	85 32       	cpi	r24, 0x25	; 37
     cf8:	39 f4       	brne	.+14     	; 0xd08 <vfprintf+0x4c>
     cfa:	93 fd       	sbrc	r25, 3
     cfc:	85 91       	lpm	r24, Z+
     cfe:	93 ff       	sbrs	r25, 3
     d00:	81 91       	ld	r24, Z+
     d02:	7f 01       	movw	r14, r30
     d04:	85 32       	cpi	r24, 0x25	; 37
     d06:	29 f4       	brne	.+10     	; 0xd12 <vfprintf+0x56>
     d08:	b6 01       	movw	r22, r12
     d0a:	90 e0       	ldi	r25, 0x00	; 0
     d0c:	0e 94 55 08 	call	0x10aa	; 0x10aa <fputc>
     d10:	e7 cf       	rjmp	.-50     	; 0xce0 <vfprintf+0x24>
     d12:	91 2c       	mov	r9, r1
     d14:	21 2c       	mov	r2, r1
     d16:	31 2c       	mov	r3, r1
     d18:	ff e1       	ldi	r31, 0x1F	; 31
     d1a:	f3 15       	cp	r31, r3
     d1c:	d8 f0       	brcs	.+54     	; 0xd54 <vfprintf+0x98>
     d1e:	8b 32       	cpi	r24, 0x2B	; 43
     d20:	79 f0       	breq	.+30     	; 0xd40 <vfprintf+0x84>
     d22:	38 f4       	brcc	.+14     	; 0xd32 <vfprintf+0x76>
     d24:	80 32       	cpi	r24, 0x20	; 32
     d26:	79 f0       	breq	.+30     	; 0xd46 <vfprintf+0x8a>
     d28:	83 32       	cpi	r24, 0x23	; 35
     d2a:	a1 f4       	brne	.+40     	; 0xd54 <vfprintf+0x98>
     d2c:	23 2d       	mov	r18, r3
     d2e:	20 61       	ori	r18, 0x10	; 16
     d30:	1d c0       	rjmp	.+58     	; 0xd6c <vfprintf+0xb0>
     d32:	8d 32       	cpi	r24, 0x2D	; 45
     d34:	61 f0       	breq	.+24     	; 0xd4e <vfprintf+0x92>
     d36:	80 33       	cpi	r24, 0x30	; 48
     d38:	69 f4       	brne	.+26     	; 0xd54 <vfprintf+0x98>
     d3a:	23 2d       	mov	r18, r3
     d3c:	21 60       	ori	r18, 0x01	; 1
     d3e:	16 c0       	rjmp	.+44     	; 0xd6c <vfprintf+0xb0>
     d40:	83 2d       	mov	r24, r3
     d42:	82 60       	ori	r24, 0x02	; 2
     d44:	38 2e       	mov	r3, r24
     d46:	e3 2d       	mov	r30, r3
     d48:	e4 60       	ori	r30, 0x04	; 4
     d4a:	3e 2e       	mov	r3, r30
     d4c:	2a c0       	rjmp	.+84     	; 0xda2 <vfprintf+0xe6>
     d4e:	f3 2d       	mov	r31, r3
     d50:	f8 60       	ori	r31, 0x08	; 8
     d52:	1d c0       	rjmp	.+58     	; 0xd8e <vfprintf+0xd2>
     d54:	37 fc       	sbrc	r3, 7
     d56:	2d c0       	rjmp	.+90     	; 0xdb2 <vfprintf+0xf6>
     d58:	20 ed       	ldi	r18, 0xD0	; 208
     d5a:	28 0f       	add	r18, r24
     d5c:	2a 30       	cpi	r18, 0x0A	; 10
     d5e:	40 f0       	brcs	.+16     	; 0xd70 <vfprintf+0xb4>
     d60:	8e 32       	cpi	r24, 0x2E	; 46
     d62:	b9 f4       	brne	.+46     	; 0xd92 <vfprintf+0xd6>
     d64:	36 fc       	sbrc	r3, 6
     d66:	81 c1       	rjmp	.+770    	; 0x106a <vfprintf+0x3ae>
     d68:	23 2d       	mov	r18, r3
     d6a:	20 64       	ori	r18, 0x40	; 64
     d6c:	32 2e       	mov	r3, r18
     d6e:	19 c0       	rjmp	.+50     	; 0xda2 <vfprintf+0xe6>
     d70:	36 fe       	sbrs	r3, 6
     d72:	06 c0       	rjmp	.+12     	; 0xd80 <vfprintf+0xc4>
     d74:	8a e0       	ldi	r24, 0x0A	; 10
     d76:	98 9e       	mul	r9, r24
     d78:	20 0d       	add	r18, r0
     d7a:	11 24       	eor	r1, r1
     d7c:	92 2e       	mov	r9, r18
     d7e:	11 c0       	rjmp	.+34     	; 0xda2 <vfprintf+0xe6>
     d80:	ea e0       	ldi	r30, 0x0A	; 10
     d82:	2e 9e       	mul	r2, r30
     d84:	20 0d       	add	r18, r0
     d86:	11 24       	eor	r1, r1
     d88:	22 2e       	mov	r2, r18
     d8a:	f3 2d       	mov	r31, r3
     d8c:	f0 62       	ori	r31, 0x20	; 32
     d8e:	3f 2e       	mov	r3, r31
     d90:	08 c0       	rjmp	.+16     	; 0xda2 <vfprintf+0xe6>
     d92:	8c 36       	cpi	r24, 0x6C	; 108
     d94:	21 f4       	brne	.+8      	; 0xd9e <vfprintf+0xe2>
     d96:	83 2d       	mov	r24, r3
     d98:	80 68       	ori	r24, 0x80	; 128
     d9a:	38 2e       	mov	r3, r24
     d9c:	02 c0       	rjmp	.+4      	; 0xda2 <vfprintf+0xe6>
     d9e:	88 36       	cpi	r24, 0x68	; 104
     da0:	41 f4       	brne	.+16     	; 0xdb2 <vfprintf+0xf6>
     da2:	f7 01       	movw	r30, r14
     da4:	93 fd       	sbrc	r25, 3
     da6:	85 91       	lpm	r24, Z+
     da8:	93 ff       	sbrs	r25, 3
     daa:	81 91       	ld	r24, Z+
     dac:	7f 01       	movw	r14, r30
     dae:	81 11       	cpse	r24, r1
     db0:	b3 cf       	rjmp	.-154    	; 0xd18 <vfprintf+0x5c>
     db2:	98 2f       	mov	r25, r24
     db4:	9f 7d       	andi	r25, 0xDF	; 223
     db6:	95 54       	subi	r25, 0x45	; 69
     db8:	93 30       	cpi	r25, 0x03	; 3
     dba:	28 f4       	brcc	.+10     	; 0xdc6 <vfprintf+0x10a>
     dbc:	0c 5f       	subi	r16, 0xFC	; 252
     dbe:	1f 4f       	sbci	r17, 0xFF	; 255
     dc0:	9f e3       	ldi	r25, 0x3F	; 63
     dc2:	99 83       	std	Y+1, r25	; 0x01
     dc4:	0d c0       	rjmp	.+26     	; 0xde0 <vfprintf+0x124>
     dc6:	83 36       	cpi	r24, 0x63	; 99
     dc8:	31 f0       	breq	.+12     	; 0xdd6 <vfprintf+0x11a>
     dca:	83 37       	cpi	r24, 0x73	; 115
     dcc:	71 f0       	breq	.+28     	; 0xdea <vfprintf+0x12e>
     dce:	83 35       	cpi	r24, 0x53	; 83
     dd0:	09 f0       	breq	.+2      	; 0xdd4 <vfprintf+0x118>
     dd2:	59 c0       	rjmp	.+178    	; 0xe86 <vfprintf+0x1ca>
     dd4:	21 c0       	rjmp	.+66     	; 0xe18 <vfprintf+0x15c>
     dd6:	f8 01       	movw	r30, r16
     dd8:	80 81       	ld	r24, Z
     dda:	89 83       	std	Y+1, r24	; 0x01
     ddc:	0e 5f       	subi	r16, 0xFE	; 254
     dde:	1f 4f       	sbci	r17, 0xFF	; 255
     de0:	88 24       	eor	r8, r8
     de2:	83 94       	inc	r8
     de4:	91 2c       	mov	r9, r1
     de6:	53 01       	movw	r10, r6
     de8:	13 c0       	rjmp	.+38     	; 0xe10 <vfprintf+0x154>
     dea:	28 01       	movw	r4, r16
     dec:	f2 e0       	ldi	r31, 0x02	; 2
     dee:	4f 0e       	add	r4, r31
     df0:	51 1c       	adc	r5, r1
     df2:	f8 01       	movw	r30, r16
     df4:	a0 80       	ld	r10, Z
     df6:	b1 80       	ldd	r11, Z+1	; 0x01
     df8:	36 fe       	sbrs	r3, 6
     dfa:	03 c0       	rjmp	.+6      	; 0xe02 <vfprintf+0x146>
     dfc:	69 2d       	mov	r22, r9
     dfe:	70 e0       	ldi	r23, 0x00	; 0
     e00:	02 c0       	rjmp	.+4      	; 0xe06 <vfprintf+0x14a>
     e02:	6f ef       	ldi	r22, 0xFF	; 255
     e04:	7f ef       	ldi	r23, 0xFF	; 255
     e06:	c5 01       	movw	r24, r10
     e08:	0e 94 4a 08 	call	0x1094	; 0x1094 <strnlen>
     e0c:	4c 01       	movw	r8, r24
     e0e:	82 01       	movw	r16, r4
     e10:	f3 2d       	mov	r31, r3
     e12:	ff 77       	andi	r31, 0x7F	; 127
     e14:	3f 2e       	mov	r3, r31
     e16:	16 c0       	rjmp	.+44     	; 0xe44 <vfprintf+0x188>
     e18:	28 01       	movw	r4, r16
     e1a:	22 e0       	ldi	r18, 0x02	; 2
     e1c:	42 0e       	add	r4, r18
     e1e:	51 1c       	adc	r5, r1
     e20:	f8 01       	movw	r30, r16
     e22:	a0 80       	ld	r10, Z
     e24:	b1 80       	ldd	r11, Z+1	; 0x01
     e26:	36 fe       	sbrs	r3, 6
     e28:	03 c0       	rjmp	.+6      	; 0xe30 <vfprintf+0x174>
     e2a:	69 2d       	mov	r22, r9
     e2c:	70 e0       	ldi	r23, 0x00	; 0
     e2e:	02 c0       	rjmp	.+4      	; 0xe34 <vfprintf+0x178>
     e30:	6f ef       	ldi	r22, 0xFF	; 255
     e32:	7f ef       	ldi	r23, 0xFF	; 255
     e34:	c5 01       	movw	r24, r10
     e36:	0e 94 3f 08 	call	0x107e	; 0x107e <strnlen_P>
     e3a:	4c 01       	movw	r8, r24
     e3c:	f3 2d       	mov	r31, r3
     e3e:	f0 68       	ori	r31, 0x80	; 128
     e40:	3f 2e       	mov	r3, r31
     e42:	82 01       	movw	r16, r4
     e44:	33 fc       	sbrc	r3, 3
     e46:	1b c0       	rjmp	.+54     	; 0xe7e <vfprintf+0x1c2>
     e48:	82 2d       	mov	r24, r2
     e4a:	90 e0       	ldi	r25, 0x00	; 0
     e4c:	88 16       	cp	r8, r24
     e4e:	99 06       	cpc	r9, r25
     e50:	b0 f4       	brcc	.+44     	; 0xe7e <vfprintf+0x1c2>
     e52:	b6 01       	movw	r22, r12
     e54:	80 e2       	ldi	r24, 0x20	; 32
     e56:	90 e0       	ldi	r25, 0x00	; 0
     e58:	0e 94 55 08 	call	0x10aa	; 0x10aa <fputc>
     e5c:	2a 94       	dec	r2
     e5e:	f4 cf       	rjmp	.-24     	; 0xe48 <vfprintf+0x18c>
     e60:	f5 01       	movw	r30, r10
     e62:	37 fc       	sbrc	r3, 7
     e64:	85 91       	lpm	r24, Z+
     e66:	37 fe       	sbrs	r3, 7
     e68:	81 91       	ld	r24, Z+
     e6a:	5f 01       	movw	r10, r30
     e6c:	b6 01       	movw	r22, r12
     e6e:	90 e0       	ldi	r25, 0x00	; 0
     e70:	0e 94 55 08 	call	0x10aa	; 0x10aa <fputc>
     e74:	21 10       	cpse	r2, r1
     e76:	2a 94       	dec	r2
     e78:	21 e0       	ldi	r18, 0x01	; 1
     e7a:	82 1a       	sub	r8, r18
     e7c:	91 08       	sbc	r9, r1
     e7e:	81 14       	cp	r8, r1
     e80:	91 04       	cpc	r9, r1
     e82:	71 f7       	brne	.-36     	; 0xe60 <vfprintf+0x1a4>
     e84:	e8 c0       	rjmp	.+464    	; 0x1056 <vfprintf+0x39a>
     e86:	84 36       	cpi	r24, 0x64	; 100
     e88:	11 f0       	breq	.+4      	; 0xe8e <vfprintf+0x1d2>
     e8a:	89 36       	cpi	r24, 0x69	; 105
     e8c:	41 f5       	brne	.+80     	; 0xede <vfprintf+0x222>
     e8e:	f8 01       	movw	r30, r16
     e90:	37 fe       	sbrs	r3, 7
     e92:	07 c0       	rjmp	.+14     	; 0xea2 <vfprintf+0x1e6>
     e94:	60 81       	ld	r22, Z
     e96:	71 81       	ldd	r23, Z+1	; 0x01
     e98:	82 81       	ldd	r24, Z+2	; 0x02
     e9a:	93 81       	ldd	r25, Z+3	; 0x03
     e9c:	0c 5f       	subi	r16, 0xFC	; 252
     e9e:	1f 4f       	sbci	r17, 0xFF	; 255
     ea0:	08 c0       	rjmp	.+16     	; 0xeb2 <vfprintf+0x1f6>
     ea2:	60 81       	ld	r22, Z
     ea4:	71 81       	ldd	r23, Z+1	; 0x01
     ea6:	07 2e       	mov	r0, r23
     ea8:	00 0c       	add	r0, r0
     eaa:	88 0b       	sbc	r24, r24
     eac:	99 0b       	sbc	r25, r25
     eae:	0e 5f       	subi	r16, 0xFE	; 254
     eb0:	1f 4f       	sbci	r17, 0xFF	; 255
     eb2:	f3 2d       	mov	r31, r3
     eb4:	ff 76       	andi	r31, 0x6F	; 111
     eb6:	3f 2e       	mov	r3, r31
     eb8:	97 ff       	sbrs	r25, 7
     eba:	09 c0       	rjmp	.+18     	; 0xece <vfprintf+0x212>
     ebc:	90 95       	com	r25
     ebe:	80 95       	com	r24
     ec0:	70 95       	com	r23
     ec2:	61 95       	neg	r22
     ec4:	7f 4f       	sbci	r23, 0xFF	; 255
     ec6:	8f 4f       	sbci	r24, 0xFF	; 255
     ec8:	9f 4f       	sbci	r25, 0xFF	; 255
     eca:	f0 68       	ori	r31, 0x80	; 128
     ecc:	3f 2e       	mov	r3, r31
     ece:	2a e0       	ldi	r18, 0x0A	; 10
     ed0:	30 e0       	ldi	r19, 0x00	; 0
     ed2:	a3 01       	movw	r20, r6
     ed4:	0e 94 91 08 	call	0x1122	; 0x1122 <__ultoa_invert>
     ed8:	88 2e       	mov	r8, r24
     eda:	86 18       	sub	r8, r6
     edc:	45 c0       	rjmp	.+138    	; 0xf68 <vfprintf+0x2ac>
     ede:	85 37       	cpi	r24, 0x75	; 117
     ee0:	31 f4       	brne	.+12     	; 0xeee <vfprintf+0x232>
     ee2:	23 2d       	mov	r18, r3
     ee4:	2f 7e       	andi	r18, 0xEF	; 239
     ee6:	b2 2e       	mov	r11, r18
     ee8:	2a e0       	ldi	r18, 0x0A	; 10
     eea:	30 e0       	ldi	r19, 0x00	; 0
     eec:	25 c0       	rjmp	.+74     	; 0xf38 <vfprintf+0x27c>
     eee:	93 2d       	mov	r25, r3
     ef0:	99 7f       	andi	r25, 0xF9	; 249
     ef2:	b9 2e       	mov	r11, r25
     ef4:	8f 36       	cpi	r24, 0x6F	; 111
     ef6:	c1 f0       	breq	.+48     	; 0xf28 <vfprintf+0x26c>
     ef8:	18 f4       	brcc	.+6      	; 0xf00 <vfprintf+0x244>
     efa:	88 35       	cpi	r24, 0x58	; 88
     efc:	79 f0       	breq	.+30     	; 0xf1c <vfprintf+0x260>
     efe:	b5 c0       	rjmp	.+362    	; 0x106a <vfprintf+0x3ae>
     f00:	80 37       	cpi	r24, 0x70	; 112
     f02:	19 f0       	breq	.+6      	; 0xf0a <vfprintf+0x24e>
     f04:	88 37       	cpi	r24, 0x78	; 120
     f06:	21 f0       	breq	.+8      	; 0xf10 <vfprintf+0x254>
     f08:	b0 c0       	rjmp	.+352    	; 0x106a <vfprintf+0x3ae>
     f0a:	e9 2f       	mov	r30, r25
     f0c:	e0 61       	ori	r30, 0x10	; 16
     f0e:	be 2e       	mov	r11, r30
     f10:	b4 fe       	sbrs	r11, 4
     f12:	0d c0       	rjmp	.+26     	; 0xf2e <vfprintf+0x272>
     f14:	fb 2d       	mov	r31, r11
     f16:	f4 60       	ori	r31, 0x04	; 4
     f18:	bf 2e       	mov	r11, r31
     f1a:	09 c0       	rjmp	.+18     	; 0xf2e <vfprintf+0x272>
     f1c:	34 fe       	sbrs	r3, 4
     f1e:	0a c0       	rjmp	.+20     	; 0xf34 <vfprintf+0x278>
     f20:	29 2f       	mov	r18, r25
     f22:	26 60       	ori	r18, 0x06	; 6
     f24:	b2 2e       	mov	r11, r18
     f26:	06 c0       	rjmp	.+12     	; 0xf34 <vfprintf+0x278>
     f28:	28 e0       	ldi	r18, 0x08	; 8
     f2a:	30 e0       	ldi	r19, 0x00	; 0
     f2c:	05 c0       	rjmp	.+10     	; 0xf38 <vfprintf+0x27c>
     f2e:	20 e1       	ldi	r18, 0x10	; 16
     f30:	30 e0       	ldi	r19, 0x00	; 0
     f32:	02 c0       	rjmp	.+4      	; 0xf38 <vfprintf+0x27c>
     f34:	20 e1       	ldi	r18, 0x10	; 16
     f36:	32 e0       	ldi	r19, 0x02	; 2
     f38:	f8 01       	movw	r30, r16
     f3a:	b7 fe       	sbrs	r11, 7
     f3c:	07 c0       	rjmp	.+14     	; 0xf4c <vfprintf+0x290>
     f3e:	60 81       	ld	r22, Z
     f40:	71 81       	ldd	r23, Z+1	; 0x01
     f42:	82 81       	ldd	r24, Z+2	; 0x02
     f44:	93 81       	ldd	r25, Z+3	; 0x03
     f46:	0c 5f       	subi	r16, 0xFC	; 252
     f48:	1f 4f       	sbci	r17, 0xFF	; 255
     f4a:	06 c0       	rjmp	.+12     	; 0xf58 <vfprintf+0x29c>
     f4c:	60 81       	ld	r22, Z
     f4e:	71 81       	ldd	r23, Z+1	; 0x01
     f50:	80 e0       	ldi	r24, 0x00	; 0
     f52:	90 e0       	ldi	r25, 0x00	; 0
     f54:	0e 5f       	subi	r16, 0xFE	; 254
     f56:	1f 4f       	sbci	r17, 0xFF	; 255
     f58:	a3 01       	movw	r20, r6
     f5a:	0e 94 91 08 	call	0x1122	; 0x1122 <__ultoa_invert>
     f5e:	88 2e       	mov	r8, r24
     f60:	86 18       	sub	r8, r6
     f62:	fb 2d       	mov	r31, r11
     f64:	ff 77       	andi	r31, 0x7F	; 127
     f66:	3f 2e       	mov	r3, r31
     f68:	36 fe       	sbrs	r3, 6
     f6a:	0d c0       	rjmp	.+26     	; 0xf86 <vfprintf+0x2ca>
     f6c:	23 2d       	mov	r18, r3
     f6e:	2e 7f       	andi	r18, 0xFE	; 254
     f70:	a2 2e       	mov	r10, r18
     f72:	89 14       	cp	r8, r9
     f74:	58 f4       	brcc	.+22     	; 0xf8c <vfprintf+0x2d0>
     f76:	34 fe       	sbrs	r3, 4
     f78:	0b c0       	rjmp	.+22     	; 0xf90 <vfprintf+0x2d4>
     f7a:	32 fc       	sbrc	r3, 2
     f7c:	09 c0       	rjmp	.+18     	; 0xf90 <vfprintf+0x2d4>
     f7e:	83 2d       	mov	r24, r3
     f80:	8e 7e       	andi	r24, 0xEE	; 238
     f82:	a8 2e       	mov	r10, r24
     f84:	05 c0       	rjmp	.+10     	; 0xf90 <vfprintf+0x2d4>
     f86:	b8 2c       	mov	r11, r8
     f88:	a3 2c       	mov	r10, r3
     f8a:	03 c0       	rjmp	.+6      	; 0xf92 <vfprintf+0x2d6>
     f8c:	b8 2c       	mov	r11, r8
     f8e:	01 c0       	rjmp	.+2      	; 0xf92 <vfprintf+0x2d6>
     f90:	b9 2c       	mov	r11, r9
     f92:	a4 fe       	sbrs	r10, 4
     f94:	0f c0       	rjmp	.+30     	; 0xfb4 <vfprintf+0x2f8>
     f96:	fe 01       	movw	r30, r28
     f98:	e8 0d       	add	r30, r8
     f9a:	f1 1d       	adc	r31, r1
     f9c:	80 81       	ld	r24, Z
     f9e:	80 33       	cpi	r24, 0x30	; 48
     fa0:	21 f4       	brne	.+8      	; 0xfaa <vfprintf+0x2ee>
     fa2:	9a 2d       	mov	r25, r10
     fa4:	99 7e       	andi	r25, 0xE9	; 233
     fa6:	a9 2e       	mov	r10, r25
     fa8:	09 c0       	rjmp	.+18     	; 0xfbc <vfprintf+0x300>
     faa:	a2 fe       	sbrs	r10, 2
     fac:	06 c0       	rjmp	.+12     	; 0xfba <vfprintf+0x2fe>
     fae:	b3 94       	inc	r11
     fb0:	b3 94       	inc	r11
     fb2:	04 c0       	rjmp	.+8      	; 0xfbc <vfprintf+0x300>
     fb4:	8a 2d       	mov	r24, r10
     fb6:	86 78       	andi	r24, 0x86	; 134
     fb8:	09 f0       	breq	.+2      	; 0xfbc <vfprintf+0x300>
     fba:	b3 94       	inc	r11
     fbc:	a3 fc       	sbrc	r10, 3
     fbe:	11 c0       	rjmp	.+34     	; 0xfe2 <vfprintf+0x326>
     fc0:	a0 fe       	sbrs	r10, 0
     fc2:	06 c0       	rjmp	.+12     	; 0xfd0 <vfprintf+0x314>
     fc4:	b2 14       	cp	r11, r2
     fc6:	88 f4       	brcc	.+34     	; 0xfea <vfprintf+0x32e>
     fc8:	28 0c       	add	r2, r8
     fca:	92 2c       	mov	r9, r2
     fcc:	9b 18       	sub	r9, r11
     fce:	0e c0       	rjmp	.+28     	; 0xfec <vfprintf+0x330>
     fd0:	b2 14       	cp	r11, r2
     fd2:	60 f4       	brcc	.+24     	; 0xfec <vfprintf+0x330>
     fd4:	b6 01       	movw	r22, r12
     fd6:	80 e2       	ldi	r24, 0x20	; 32
     fd8:	90 e0       	ldi	r25, 0x00	; 0
     fda:	0e 94 55 08 	call	0x10aa	; 0x10aa <fputc>
     fde:	b3 94       	inc	r11
     fe0:	f7 cf       	rjmp	.-18     	; 0xfd0 <vfprintf+0x314>
     fe2:	b2 14       	cp	r11, r2
     fe4:	18 f4       	brcc	.+6      	; 0xfec <vfprintf+0x330>
     fe6:	2b 18       	sub	r2, r11
     fe8:	02 c0       	rjmp	.+4      	; 0xfee <vfprintf+0x332>
     fea:	98 2c       	mov	r9, r8
     fec:	21 2c       	mov	r2, r1
     fee:	a4 fe       	sbrs	r10, 4
     ff0:	10 c0       	rjmp	.+32     	; 0x1012 <vfprintf+0x356>
     ff2:	b6 01       	movw	r22, r12
     ff4:	80 e3       	ldi	r24, 0x30	; 48
     ff6:	90 e0       	ldi	r25, 0x00	; 0
     ff8:	0e 94 55 08 	call	0x10aa	; 0x10aa <fputc>
     ffc:	a2 fe       	sbrs	r10, 2
     ffe:	17 c0       	rjmp	.+46     	; 0x102e <vfprintf+0x372>
    1000:	a1 fc       	sbrc	r10, 1
    1002:	03 c0       	rjmp	.+6      	; 0x100a <vfprintf+0x34e>
    1004:	88 e7       	ldi	r24, 0x78	; 120
    1006:	90 e0       	ldi	r25, 0x00	; 0
    1008:	02 c0       	rjmp	.+4      	; 0x100e <vfprintf+0x352>
    100a:	88 e5       	ldi	r24, 0x58	; 88
    100c:	90 e0       	ldi	r25, 0x00	; 0
    100e:	b6 01       	movw	r22, r12
    1010:	0c c0       	rjmp	.+24     	; 0x102a <vfprintf+0x36e>
    1012:	8a 2d       	mov	r24, r10
    1014:	86 78       	andi	r24, 0x86	; 134
    1016:	59 f0       	breq	.+22     	; 0x102e <vfprintf+0x372>
    1018:	a1 fe       	sbrs	r10, 1
    101a:	02 c0       	rjmp	.+4      	; 0x1020 <vfprintf+0x364>
    101c:	8b e2       	ldi	r24, 0x2B	; 43
    101e:	01 c0       	rjmp	.+2      	; 0x1022 <vfprintf+0x366>
    1020:	80 e2       	ldi	r24, 0x20	; 32
    1022:	a7 fc       	sbrc	r10, 7
    1024:	8d e2       	ldi	r24, 0x2D	; 45
    1026:	b6 01       	movw	r22, r12
    1028:	90 e0       	ldi	r25, 0x00	; 0
    102a:	0e 94 55 08 	call	0x10aa	; 0x10aa <fputc>
    102e:	89 14       	cp	r8, r9
    1030:	38 f4       	brcc	.+14     	; 0x1040 <vfprintf+0x384>
    1032:	b6 01       	movw	r22, r12
    1034:	80 e3       	ldi	r24, 0x30	; 48
    1036:	90 e0       	ldi	r25, 0x00	; 0
    1038:	0e 94 55 08 	call	0x10aa	; 0x10aa <fputc>
    103c:	9a 94       	dec	r9
    103e:	f7 cf       	rjmp	.-18     	; 0x102e <vfprintf+0x372>
    1040:	8a 94       	dec	r8
    1042:	f3 01       	movw	r30, r6
    1044:	e8 0d       	add	r30, r8
    1046:	f1 1d       	adc	r31, r1
    1048:	80 81       	ld	r24, Z
    104a:	b6 01       	movw	r22, r12
    104c:	90 e0       	ldi	r25, 0x00	; 0
    104e:	0e 94 55 08 	call	0x10aa	; 0x10aa <fputc>
    1052:	81 10       	cpse	r8, r1
    1054:	f5 cf       	rjmp	.-22     	; 0x1040 <vfprintf+0x384>
    1056:	22 20       	and	r2, r2
    1058:	09 f4       	brne	.+2      	; 0x105c <vfprintf+0x3a0>
    105a:	42 ce       	rjmp	.-892    	; 0xce0 <vfprintf+0x24>
    105c:	b6 01       	movw	r22, r12
    105e:	80 e2       	ldi	r24, 0x20	; 32
    1060:	90 e0       	ldi	r25, 0x00	; 0
    1062:	0e 94 55 08 	call	0x10aa	; 0x10aa <fputc>
    1066:	2a 94       	dec	r2
    1068:	f6 cf       	rjmp	.-20     	; 0x1056 <vfprintf+0x39a>
    106a:	f6 01       	movw	r30, r12
    106c:	86 81       	ldd	r24, Z+6	; 0x06
    106e:	97 81       	ldd	r25, Z+7	; 0x07
    1070:	02 c0       	rjmp	.+4      	; 0x1076 <vfprintf+0x3ba>
    1072:	8f ef       	ldi	r24, 0xFF	; 255
    1074:	9f ef       	ldi	r25, 0xFF	; 255
    1076:	2b 96       	adiw	r28, 0x0b	; 11
    1078:	e2 e1       	ldi	r30, 0x12	; 18
    107a:	0c 94 0e 09 	jmp	0x121c	; 0x121c <__epilogue_restores__>

0000107e <strnlen_P>:
    107e:	fc 01       	movw	r30, r24
    1080:	05 90       	lpm	r0, Z+
    1082:	61 50       	subi	r22, 0x01	; 1
    1084:	70 40       	sbci	r23, 0x00	; 0
    1086:	01 10       	cpse	r0, r1
    1088:	d8 f7       	brcc	.-10     	; 0x1080 <strnlen_P+0x2>
    108a:	80 95       	com	r24
    108c:	90 95       	com	r25
    108e:	8e 0f       	add	r24, r30
    1090:	9f 1f       	adc	r25, r31
    1092:	08 95       	ret

00001094 <strnlen>:
    1094:	fc 01       	movw	r30, r24
    1096:	61 50       	subi	r22, 0x01	; 1
    1098:	70 40       	sbci	r23, 0x00	; 0
    109a:	01 90       	ld	r0, Z+
    109c:	01 10       	cpse	r0, r1
    109e:	d8 f7       	brcc	.-10     	; 0x1096 <strnlen+0x2>
    10a0:	80 95       	com	r24
    10a2:	90 95       	com	r25
    10a4:	8e 0f       	add	r24, r30
    10a6:	9f 1f       	adc	r25, r31
    10a8:	08 95       	ret

000010aa <fputc>:
    10aa:	0f 93       	push	r16
    10ac:	1f 93       	push	r17
    10ae:	cf 93       	push	r28
    10b0:	df 93       	push	r29
    10b2:	fb 01       	movw	r30, r22
    10b4:	23 81       	ldd	r18, Z+3	; 0x03
    10b6:	21 fd       	sbrc	r18, 1
    10b8:	03 c0       	rjmp	.+6      	; 0x10c0 <fputc+0x16>
    10ba:	8f ef       	ldi	r24, 0xFF	; 255
    10bc:	9f ef       	ldi	r25, 0xFF	; 255
    10be:	2c c0       	rjmp	.+88     	; 0x1118 <fputc+0x6e>
    10c0:	22 ff       	sbrs	r18, 2
    10c2:	16 c0       	rjmp	.+44     	; 0x10f0 <fputc+0x46>
    10c4:	46 81       	ldd	r20, Z+6	; 0x06
    10c6:	57 81       	ldd	r21, Z+7	; 0x07
    10c8:	24 81       	ldd	r18, Z+4	; 0x04
    10ca:	35 81       	ldd	r19, Z+5	; 0x05
    10cc:	42 17       	cp	r20, r18
    10ce:	53 07       	cpc	r21, r19
    10d0:	44 f4       	brge	.+16     	; 0x10e2 <fputc+0x38>
    10d2:	a0 81       	ld	r26, Z
    10d4:	b1 81       	ldd	r27, Z+1	; 0x01
    10d6:	9d 01       	movw	r18, r26
    10d8:	2f 5f       	subi	r18, 0xFF	; 255
    10da:	3f 4f       	sbci	r19, 0xFF	; 255
    10dc:	20 83       	st	Z, r18
    10de:	31 83       	std	Z+1, r19	; 0x01
    10e0:	8c 93       	st	X, r24
    10e2:	26 81       	ldd	r18, Z+6	; 0x06
    10e4:	37 81       	ldd	r19, Z+7	; 0x07
    10e6:	2f 5f       	subi	r18, 0xFF	; 255
    10e8:	3f 4f       	sbci	r19, 0xFF	; 255
    10ea:	26 83       	std	Z+6, r18	; 0x06
    10ec:	37 83       	std	Z+7, r19	; 0x07
    10ee:	14 c0       	rjmp	.+40     	; 0x1118 <fputc+0x6e>
    10f0:	8b 01       	movw	r16, r22
    10f2:	ec 01       	movw	r28, r24
    10f4:	fb 01       	movw	r30, r22
    10f6:	00 84       	ldd	r0, Z+8	; 0x08
    10f8:	f1 85       	ldd	r31, Z+9	; 0x09
    10fa:	e0 2d       	mov	r30, r0
    10fc:	09 95       	icall
    10fe:	89 2b       	or	r24, r25
    1100:	e1 f6       	brne	.-72     	; 0x10ba <fputc+0x10>
    1102:	d8 01       	movw	r26, r16
    1104:	16 96       	adiw	r26, 0x06	; 6
    1106:	8d 91       	ld	r24, X+
    1108:	9c 91       	ld	r25, X
    110a:	17 97       	sbiw	r26, 0x07	; 7
    110c:	01 96       	adiw	r24, 0x01	; 1
    110e:	16 96       	adiw	r26, 0x06	; 6
    1110:	8d 93       	st	X+, r24
    1112:	9c 93       	st	X, r25
    1114:	17 97       	sbiw	r26, 0x07	; 7
    1116:	ce 01       	movw	r24, r28
    1118:	df 91       	pop	r29
    111a:	cf 91       	pop	r28
    111c:	1f 91       	pop	r17
    111e:	0f 91       	pop	r16
    1120:	08 95       	ret

00001122 <__ultoa_invert>:
    1122:	fa 01       	movw	r30, r20
    1124:	aa 27       	eor	r26, r26
    1126:	28 30       	cpi	r18, 0x08	; 8
    1128:	51 f1       	breq	.+84     	; 0x117e <__ultoa_invert+0x5c>
    112a:	20 31       	cpi	r18, 0x10	; 16
    112c:	81 f1       	breq	.+96     	; 0x118e <__ultoa_invert+0x6c>
    112e:	e8 94       	clt
    1130:	6f 93       	push	r22
    1132:	6e 7f       	andi	r22, 0xFE	; 254
    1134:	6e 5f       	subi	r22, 0xFE	; 254
    1136:	7f 4f       	sbci	r23, 0xFF	; 255
    1138:	8f 4f       	sbci	r24, 0xFF	; 255
    113a:	9f 4f       	sbci	r25, 0xFF	; 255
    113c:	af 4f       	sbci	r26, 0xFF	; 255
    113e:	b1 e0       	ldi	r27, 0x01	; 1
    1140:	3e d0       	rcall	.+124    	; 0x11be <__ultoa_invert+0x9c>
    1142:	b4 e0       	ldi	r27, 0x04	; 4
    1144:	3c d0       	rcall	.+120    	; 0x11be <__ultoa_invert+0x9c>
    1146:	67 0f       	add	r22, r23
    1148:	78 1f       	adc	r23, r24
    114a:	89 1f       	adc	r24, r25
    114c:	9a 1f       	adc	r25, r26
    114e:	a1 1d       	adc	r26, r1
    1150:	68 0f       	add	r22, r24
    1152:	79 1f       	adc	r23, r25
    1154:	8a 1f       	adc	r24, r26
    1156:	91 1d       	adc	r25, r1
    1158:	a1 1d       	adc	r26, r1
    115a:	6a 0f       	add	r22, r26
    115c:	71 1d       	adc	r23, r1
    115e:	81 1d       	adc	r24, r1
    1160:	91 1d       	adc	r25, r1
    1162:	a1 1d       	adc	r26, r1
    1164:	20 d0       	rcall	.+64     	; 0x11a6 <__ultoa_invert+0x84>
    1166:	09 f4       	brne	.+2      	; 0x116a <__ultoa_invert+0x48>
    1168:	68 94       	set
    116a:	3f 91       	pop	r19
    116c:	2a e0       	ldi	r18, 0x0A	; 10
    116e:	26 9f       	mul	r18, r22
    1170:	11 24       	eor	r1, r1
    1172:	30 19       	sub	r19, r0
    1174:	30 5d       	subi	r19, 0xD0	; 208
    1176:	31 93       	st	Z+, r19
    1178:	de f6       	brtc	.-74     	; 0x1130 <__ultoa_invert+0xe>
    117a:	cf 01       	movw	r24, r30
    117c:	08 95       	ret
    117e:	46 2f       	mov	r20, r22
    1180:	47 70       	andi	r20, 0x07	; 7
    1182:	40 5d       	subi	r20, 0xD0	; 208
    1184:	41 93       	st	Z+, r20
    1186:	b3 e0       	ldi	r27, 0x03	; 3
    1188:	0f d0       	rcall	.+30     	; 0x11a8 <__ultoa_invert+0x86>
    118a:	c9 f7       	brne	.-14     	; 0x117e <__ultoa_invert+0x5c>
    118c:	f6 cf       	rjmp	.-20     	; 0x117a <__ultoa_invert+0x58>
    118e:	46 2f       	mov	r20, r22
    1190:	4f 70       	andi	r20, 0x0F	; 15
    1192:	40 5d       	subi	r20, 0xD0	; 208
    1194:	4a 33       	cpi	r20, 0x3A	; 58
    1196:	18 f0       	brcs	.+6      	; 0x119e <__ultoa_invert+0x7c>
    1198:	49 5d       	subi	r20, 0xD9	; 217
    119a:	31 fd       	sbrc	r19, 1
    119c:	40 52       	subi	r20, 0x20	; 32
    119e:	41 93       	st	Z+, r20
    11a0:	02 d0       	rcall	.+4      	; 0x11a6 <__ultoa_invert+0x84>
    11a2:	a9 f7       	brne	.-22     	; 0x118e <__ultoa_invert+0x6c>
    11a4:	ea cf       	rjmp	.-44     	; 0x117a <__ultoa_invert+0x58>
    11a6:	b4 e0       	ldi	r27, 0x04	; 4
    11a8:	a6 95       	lsr	r26
    11aa:	97 95       	ror	r25
    11ac:	87 95       	ror	r24
    11ae:	77 95       	ror	r23
    11b0:	67 95       	ror	r22
    11b2:	ba 95       	dec	r27
    11b4:	c9 f7       	brne	.-14     	; 0x11a8 <__ultoa_invert+0x86>
    11b6:	00 97       	sbiw	r24, 0x00	; 0
    11b8:	61 05       	cpc	r22, r1
    11ba:	71 05       	cpc	r23, r1
    11bc:	08 95       	ret
    11be:	9b 01       	movw	r18, r22
    11c0:	ac 01       	movw	r20, r24
    11c2:	0a 2e       	mov	r0, r26
    11c4:	06 94       	lsr	r0
    11c6:	57 95       	ror	r21
    11c8:	47 95       	ror	r20
    11ca:	37 95       	ror	r19
    11cc:	27 95       	ror	r18
    11ce:	ba 95       	dec	r27
    11d0:	c9 f7       	brne	.-14     	; 0x11c4 <__ultoa_invert+0xa2>
    11d2:	62 0f       	add	r22, r18
    11d4:	73 1f       	adc	r23, r19
    11d6:	84 1f       	adc	r24, r20
    11d8:	95 1f       	adc	r25, r21
    11da:	a0 1d       	adc	r26, r0
    11dc:	08 95       	ret

000011de <ccp_write_io>:
    11de:	dc 01       	movw	r26, r24
    11e0:	28 ed       	ldi	r18, 0xD8	; 216
    11e2:	20 93 34 00 	sts	0x0034, r18	; 0x800034 <__TEXT_REGION_LENGTH__+0x7f4034>
    11e6:	6c 93       	st	X, r22
    11e8:	08 95       	ret

000011ea <__prologue_saves__>:
    11ea:	2f 92       	push	r2
    11ec:	3f 92       	push	r3
    11ee:	4f 92       	push	r4
    11f0:	5f 92       	push	r5
    11f2:	6f 92       	push	r6
    11f4:	7f 92       	push	r7
    11f6:	8f 92       	push	r8
    11f8:	9f 92       	push	r9
    11fa:	af 92       	push	r10
    11fc:	bf 92       	push	r11
    11fe:	cf 92       	push	r12
    1200:	df 92       	push	r13
    1202:	ef 92       	push	r14
    1204:	ff 92       	push	r15
    1206:	0f 93       	push	r16
    1208:	1f 93       	push	r17
    120a:	cf 93       	push	r28
    120c:	df 93       	push	r29
    120e:	cd b7       	in	r28, 0x3d	; 61
    1210:	de b7       	in	r29, 0x3e	; 62
    1212:	ca 1b       	sub	r28, r26
    1214:	db 0b       	sbc	r29, r27
    1216:	cd bf       	out	0x3d, r28	; 61
    1218:	de bf       	out	0x3e, r29	; 62
    121a:	09 94       	ijmp

0000121c <__epilogue_restores__>:
    121c:	2a 88       	ldd	r2, Y+18	; 0x12
    121e:	39 88       	ldd	r3, Y+17	; 0x11
    1220:	48 88       	ldd	r4, Y+16	; 0x10
    1222:	5f 84       	ldd	r5, Y+15	; 0x0f
    1224:	6e 84       	ldd	r6, Y+14	; 0x0e
    1226:	7d 84       	ldd	r7, Y+13	; 0x0d
    1228:	8c 84       	ldd	r8, Y+12	; 0x0c
    122a:	9b 84       	ldd	r9, Y+11	; 0x0b
    122c:	aa 84       	ldd	r10, Y+10	; 0x0a
    122e:	b9 84       	ldd	r11, Y+9	; 0x09
    1230:	c8 84       	ldd	r12, Y+8	; 0x08
    1232:	df 80       	ldd	r13, Y+7	; 0x07
    1234:	ee 80       	ldd	r14, Y+6	; 0x06
    1236:	fd 80       	ldd	r15, Y+5	; 0x05
    1238:	0c 81       	ldd	r16, Y+4	; 0x04
    123a:	1b 81       	ldd	r17, Y+3	; 0x03
    123c:	aa 81       	ldd	r26, Y+2	; 0x02
    123e:	b9 81       	ldd	r27, Y+1	; 0x01
    1240:	ce 0f       	add	r28, r30
    1242:	d1 1d       	adc	r29, r1
    1244:	cd bf       	out	0x3d, r28	; 61
    1246:	de bf       	out	0x3e, r29	; 62
    1248:	ed 01       	movw	r28, r26
    124a:	08 95       	ret

0000124c <_exit>:
    124c:	f8 94       	cli

0000124e <__stop_program>:
    124e:	ff cf       	rjmp	.-2      	; 0x124e <__stop_program>
